Component: ARM Compiler 5.06 update 6 (build 750) Tool: armlink [4d35ed]

==============================================================================

Section Cross References

    startup_stm32f10x_md.o(RESET) refers to startup_stm32f10x_md.o(STACK) for __initial_sp
    startup_stm32f10x_md.o(RESET) refers to startup_stm32f10x_md.o(.text) for Reset_Handler
    startup_stm32f10x_md.o(RESET) refers to stm32f10x_it.o(i.NMI_Handler) for NMI_Handler
    startup_stm32f10x_md.o(RESET) refers to stm32f10x_it.o(i.HardFault_Handler) for HardFault_Handler
    startup_stm32f10x_md.o(RESET) refers to stm32f10x_it.o(i.MemManage_Handler) for MemManage_Handler
    startup_stm32f10x_md.o(RESET) refers to stm32f10x_it.o(i.BusFault_Handler) for BusFault_Handler
    startup_stm32f10x_md.o(RESET) refers to stm32f10x_it.o(i.UsageFault_Handler) for UsageFault_Handler
    startup_stm32f10x_md.o(RESET) refers to stm32f10x_it.o(i.SVC_Handler) for SVC_Handler
    startup_stm32f10x_md.o(RESET) refers to stm32f10x_it.o(i.DebugMon_Handler) for DebugMon_Handler
    startup_stm32f10x_md.o(RESET) refers to stm32f10x_it.o(i.PendSV_Handler) for PendSV_Handler
    startup_stm32f10x_md.o(RESET) refers to stm32f10x_it.o(i.SysTick_Handler) for SysTick_Handler
    startup_stm32f10x_md.o(RESET) refers to main.o(i.EXTI4_IRQHandler) for EXTI4_IRQHandler
    startup_stm32f10x_md.o(RESET) refers to main.o(i.EXTI9_5_IRQHandler) for EXTI9_5_IRQHandler
    startup_stm32f10x_md.o(RESET) refers to main.o(i.TIM2_IRQHandler) for TIM2_IRQHandler
    startup_stm32f10x_md.o(RESET) refers to main.o(i.EXTI15_10_IRQHandler) for EXTI15_10_IRQHandler
    startup_stm32f10x_md.o(.text) refers to system_stm32f10x.o(i.SystemInit) for SystemInit
    startup_stm32f10x_md.o(.text) refers to entry.o(.ARM.Collect$$$$00000000) for __main
    system_stm32f10x.o(i.SetSysClock) refers to system_stm32f10x.o(i.SetSysClockTo72) for SetSysClockTo72
    system_stm32f10x.o(i.SystemCoreClockUpdate) refers to system_stm32f10x.o(.data) for SystemCoreClock
    system_stm32f10x.o(i.SystemInit) refers to system_stm32f10x.o(i.SetSysClock) for SetSysClock
    stm32f10x_adc.o(i.ADC_DeInit) refers to stm32f10x_rcc.o(i.RCC_APB2PeriphResetCmd) for RCC_APB2PeriphResetCmd
    stm32f10x_bkp.o(i.BKP_DeInit) refers to stm32f10x_rcc.o(i.RCC_BackupResetCmd) for RCC_BackupResetCmd
    stm32f10x_can.o(i.CAN_DeInit) refers to stm32f10x_rcc.o(i.RCC_APB1PeriphResetCmd) for RCC_APB1PeriphResetCmd
    stm32f10x_can.o(i.CAN_GetITStatus) refers to stm32f10x_can.o(i.CheckITStatus) for CheckITStatus
    stm32f10x_cec.o(i.CEC_DeInit) refers to stm32f10x_rcc.o(i.RCC_APB1PeriphResetCmd) for RCC_APB1PeriphResetCmd
    stm32f10x_dac.o(i.DAC_DeInit) refers to stm32f10x_rcc.o(i.RCC_APB1PeriphResetCmd) for RCC_APB1PeriphResetCmd
    stm32f10x_flash.o(i.FLASH_EnableWriteProtection) refers to stm32f10x_flash.o(i.FLASH_WaitForLastOperation) for FLASH_WaitForLastOperation
    stm32f10x_flash.o(i.FLASH_EraseAllBank1Pages) refers to stm32f10x_flash.o(i.FLASH_WaitForLastBank1Operation) for FLASH_WaitForLastBank1Operation
    stm32f10x_flash.o(i.FLASH_EraseAllPages) refers to stm32f10x_flash.o(i.FLASH_WaitForLastOperation) for FLASH_WaitForLastOperation
    stm32f10x_flash.o(i.FLASH_EraseOptionBytes) refers to stm32f10x_flash.o(i.FLASH_GetReadOutProtectionStatus) for FLASH_GetReadOutProtectionStatus
    stm32f10x_flash.o(i.FLASH_EraseOptionBytes) refers to stm32f10x_flash.o(i.FLASH_WaitForLastOperation) for FLASH_WaitForLastOperation
    stm32f10x_flash.o(i.FLASH_ErasePage) refers to stm32f10x_flash.o(i.FLASH_WaitForLastOperation) for FLASH_WaitForLastOperation
    stm32f10x_flash.o(i.FLASH_ProgramHalfWord) refers to stm32f10x_flash.o(i.FLASH_WaitForLastOperation) for FLASH_WaitForLastOperation
    stm32f10x_flash.o(i.FLASH_ProgramOptionByteData) refers to stm32f10x_flash.o(i.FLASH_WaitForLastOperation) for FLASH_WaitForLastOperation
    stm32f10x_flash.o(i.FLASH_ProgramWord) refers to stm32f10x_flash.o(i.FLASH_WaitForLastOperation) for FLASH_WaitForLastOperation
    stm32f10x_flash.o(i.FLASH_ReadOutProtection) refers to stm32f10x_flash.o(i.FLASH_WaitForLastOperation) for FLASH_WaitForLastOperation
    stm32f10x_flash.o(i.FLASH_UserOptionByteConfig) refers to stm32f10x_flash.o(i.FLASH_WaitForLastOperation) for FLASH_WaitForLastOperation
    stm32f10x_flash.o(i.FLASH_WaitForLastBank1Operation) refers to stm32f10x_flash.o(i.FLASH_GetBank1Status) for FLASH_GetBank1Status
    stm32f10x_flash.o(i.FLASH_WaitForLastOperation) refers to stm32f10x_flash.o(i.FLASH_GetBank1Status) for FLASH_GetBank1Status
    stm32f10x_gpio.o(i.GPIO_AFIODeInit) refers to stm32f10x_rcc.o(i.RCC_APB2PeriphResetCmd) for RCC_APB2PeriphResetCmd
    stm32f10x_gpio.o(i.GPIO_DeInit) refers to stm32f10x_rcc.o(i.RCC_APB2PeriphResetCmd) for RCC_APB2PeriphResetCmd
    stm32f10x_i2c.o(i.I2C_DeInit) refers to stm32f10x_rcc.o(i.RCC_APB1PeriphResetCmd) for RCC_APB1PeriphResetCmd
    stm32f10x_i2c.o(i.I2C_Init) refers to stm32f10x_rcc.o(i.RCC_GetClocksFreq) for RCC_GetClocksFreq
    stm32f10x_pwr.o(i.PWR_DeInit) refers to stm32f10x_rcc.o(i.RCC_APB1PeriphResetCmd) for RCC_APB1PeriphResetCmd
    stm32f10x_rcc.o(i.RCC_GetClocksFreq) refers to stm32f10x_rcc.o(.data) for APBAHBPrescTable
    stm32f10x_rcc.o(i.RCC_WaitForHSEStartUp) refers to stm32f10x_rcc.o(i.RCC_GetFlagStatus) for RCC_GetFlagStatus
    stm32f10x_rtc.o(i.RTC_SetAlarm) refers to stm32f10x_rtc.o(i.RTC_EnterConfigMode) for RTC_EnterConfigMode
    stm32f10x_rtc.o(i.RTC_SetAlarm) refers to stm32f10x_rtc.o(i.RTC_ExitConfigMode) for RTC_ExitConfigMode
    stm32f10x_rtc.o(i.RTC_SetCounter) refers to stm32f10x_rtc.o(i.RTC_EnterConfigMode) for RTC_EnterConfigMode
    stm32f10x_rtc.o(i.RTC_SetCounter) refers to stm32f10x_rtc.o(i.RTC_ExitConfigMode) for RTC_ExitConfigMode
    stm32f10x_rtc.o(i.RTC_SetPrescaler) refers to stm32f10x_rtc.o(i.RTC_EnterConfigMode) for RTC_EnterConfigMode
    stm32f10x_rtc.o(i.RTC_SetPrescaler) refers to stm32f10x_rtc.o(i.RTC_ExitConfigMode) for RTC_ExitConfigMode
    stm32f10x_spi.o(i.I2S_Init) refers to stm32f10x_rcc.o(i.RCC_GetClocksFreq) for RCC_GetClocksFreq
    stm32f10x_spi.o(i.SPI_I2S_DeInit) refers to stm32f10x_rcc.o(i.RCC_APB2PeriphResetCmd) for RCC_APB2PeriphResetCmd
    stm32f10x_spi.o(i.SPI_I2S_DeInit) refers to stm32f10x_rcc.o(i.RCC_APB1PeriphResetCmd) for RCC_APB1PeriphResetCmd
    stm32f10x_tim.o(i.TIM_DeInit) refers to stm32f10x_rcc.o(i.RCC_APB2PeriphResetCmd) for RCC_APB2PeriphResetCmd
    stm32f10x_tim.o(i.TIM_DeInit) refers to stm32f10x_rcc.o(i.RCC_APB1PeriphResetCmd) for RCC_APB1PeriphResetCmd
    stm32f10x_tim.o(i.TIM_ETRClockMode1Config) refers to stm32f10x_tim.o(i.TIM_ETRConfig) for TIM_ETRConfig
    stm32f10x_tim.o(i.TIM_ETRClockMode2Config) refers to stm32f10x_tim.o(i.TIM_ETRConfig) for TIM_ETRConfig
    stm32f10x_tim.o(i.TIM_ICInit) refers to stm32f10x_tim.o(i.TI1_Config) for TI1_Config
    stm32f10x_tim.o(i.TIM_ICInit) refers to stm32f10x_tim.o(i.TIM_SetIC1Prescaler) for TIM_SetIC1Prescaler
    stm32f10x_tim.o(i.TIM_ICInit) refers to stm32f10x_tim.o(i.TI2_Config) for TI2_Config
    stm32f10x_tim.o(i.TIM_ICInit) refers to stm32f10x_tim.o(i.TIM_SetIC2Prescaler) for TIM_SetIC2Prescaler
    stm32f10x_tim.o(i.TIM_ICInit) refers to stm32f10x_tim.o(i.TI3_Config) for TI3_Config
    stm32f10x_tim.o(i.TIM_ICInit) refers to stm32f10x_tim.o(i.TIM_SetIC3Prescaler) for TIM_SetIC3Prescaler
    stm32f10x_tim.o(i.TIM_ICInit) refers to stm32f10x_tim.o(i.TI4_Config) for TI4_Config
    stm32f10x_tim.o(i.TIM_ICInit) refers to stm32f10x_tim.o(i.TIM_SetIC4Prescaler) for TIM_SetIC4Prescaler
    stm32f10x_tim.o(i.TIM_ITRxExternalClockConfig) refers to stm32f10x_tim.o(i.TIM_SelectInputTrigger) for TIM_SelectInputTrigger
    stm32f10x_tim.o(i.TIM_PWMIConfig) refers to stm32f10x_tim.o(i.TI1_Config) for TI1_Config
    stm32f10x_tim.o(i.TIM_PWMIConfig) refers to stm32f10x_tim.o(i.TIM_SetIC1Prescaler) for TIM_SetIC1Prescaler
    stm32f10x_tim.o(i.TIM_PWMIConfig) refers to stm32f10x_tim.o(i.TI2_Config) for TI2_Config
    stm32f10x_tim.o(i.TIM_PWMIConfig) refers to stm32f10x_tim.o(i.TIM_SetIC2Prescaler) for TIM_SetIC2Prescaler
    stm32f10x_tim.o(i.TIM_TIxExternalClockConfig) refers to stm32f10x_tim.o(i.TI2_Config) for TI2_Config
    stm32f10x_tim.o(i.TIM_TIxExternalClockConfig) refers to stm32f10x_tim.o(i.TI1_Config) for TI1_Config
    stm32f10x_tim.o(i.TIM_TIxExternalClockConfig) refers to stm32f10x_tim.o(i.TIM_SelectInputTrigger) for TIM_SelectInputTrigger
    stm32f10x_usart.o(i.USART_DeInit) refers to stm32f10x_rcc.o(i.RCC_APB2PeriphResetCmd) for RCC_APB2PeriphResetCmd
    stm32f10x_usart.o(i.USART_DeInit) refers to stm32f10x_rcc.o(i.RCC_APB1PeriphResetCmd) for RCC_APB1PeriphResetCmd
    stm32f10x_usart.o(i.USART_Init) refers to stm32f10x_rcc.o(i.RCC_GetClocksFreq) for RCC_GetClocksFreq
    stm32f10x_wwdg.o(i.WWDG_DeInit) refers to stm32f10x_rcc.o(i.RCC_APB1PeriphResetCmd) for RCC_APB1PeriphResetCmd
    main.o(i.EXTI15_10_IRQHandler) refers to stm32f10x_exti.o(i.EXTI_GetITStatus) for EXTI_GetITStatus
    main.o(i.EXTI15_10_IRQHandler) refers to stm32f10x_exti.o(i.EXTI_ClearITPendingBit) for EXTI_ClearITPendingBit
    main.o(i.EXTI15_10_IRQHandler) refers to main.o(.bss) for g_acc
    main.o(i.EXTI4_IRQHandler) refers to stm32f10x_exti.o(i.EXTI_GetITStatus) for EXTI_GetITStatus
    main.o(i.EXTI4_IRQHandler) refers to stm32f10x_exti.o(i.EXTI_ClearITPendingBit) for EXTI_ClearITPendingBit
    main.o(i.EXTI4_IRQHandler) refers to main.o(.bss) for g_acc
    main.o(i.EXTI9_5_IRQHandler) refers to stm32f10x_exti.o(i.EXTI_GetITStatus) for EXTI_GetITStatus
    main.o(i.EXTI9_5_IRQHandler) refers to stm32f10x_exti.o(i.EXTI_ClearITPendingBit) for EXTI_ClearITPendingBit
    main.o(i.EXTI9_5_IRQHandler) refers to main.o(.bss) for g_imu
    main.o(i.SYSCLK_Config_WakeUp) refers to stm32f10x_rcc.o(i.RCC_DeInit) for RCC_DeInit
    main.o(i.SYSCLK_Config_WakeUp) refers to stm32f10x_rcc.o(i.RCC_HSEConfig) for RCC_HSEConfig
    main.o(i.SYSCLK_Config_WakeUp) refers to stm32f10x_rcc.o(i.RCC_WaitForHSEStartUp) for RCC_WaitForHSEStartUp
    main.o(i.SYSCLK_Config_WakeUp) refers to stm32f10x_rcc.o(i.RCC_HCLKConfig) for RCC_HCLKConfig
    main.o(i.SYSCLK_Config_WakeUp) refers to stm32f10x_rcc.o(i.RCC_PCLK2Config) for RCC_PCLK2Config
    main.o(i.SYSCLK_Config_WakeUp) refers to stm32f10x_rcc.o(i.RCC_PCLK1Config) for RCC_PCLK1Config
    main.o(i.SYSCLK_Config_WakeUp) refers to stm32f10x_rcc.o(i.RCC_PLLConfig) for RCC_PLLConfig
    main.o(i.SYSCLK_Config_WakeUp) refers to stm32f10x_rcc.o(i.RCC_PLLCmd) for RCC_PLLCmd
    main.o(i.SYSCLK_Config_WakeUp) refers to stm32f10x_rcc.o(i.RCC_GetFlagStatus) for RCC_GetFlagStatus
    main.o(i.SYSCLK_Config_WakeUp) refers to stm32f10x_rcc.o(i.RCC_SYSCLKConfig) for RCC_SYSCLKConfig
    main.o(i.SYSCLK_Config_WakeUp) refers to stm32f10x_rcc.o(i.RCC_GetSYSCLKSource) for RCC_GetSYSCLKSource
    main.o(i.TIM2_IRQHandler) refers to stm32f10x_tim.o(i.TIM_GetITStatus) for TIM_GetITStatus
    main.o(i.TIM2_IRQHandler) refers to stm32f10x_tim.o(i.TIM_ClearITPendingBit) for TIM_ClearITPendingBit
    main.o(i.TIM2_IRQHandler) refers to main.o(i.qst_sensor_read) for qst_sensor_read
    main.o(i.acc_int1_callback) refers to qmax981.o(i.qmaX981_irq_hdlr) for qmaX981_irq_hdlr
    main.o(i.acc_int1_callback) refers to main.o(.data) for g_chip
    main.o(i.acc_int2_callback) refers to qmax981.o(i.qmaX981_irq_hdlr) for qmaX981_irq_hdlr
    main.o(i.acc_int2_callback) refers to main.o(.data) for g_chip
    main.o(i.acc_process_irq) refers to main.o(.bss) for g_acc
    main.o(i.acc_setup_irq) refers to stm32f10x_rcc.o(i.RCC_APB2PeriphClockCmd) for RCC_APB2PeriphClockCmd
    main.o(i.acc_setup_irq) refers to stm32f10x_gpio.o(i.GPIO_Init) for GPIO_Init
    main.o(i.acc_setup_irq) refers to stm32f10x_exti.o(i.EXTI_ClearITPendingBit) for EXTI_ClearITPendingBit
    main.o(i.acc_setup_irq) refers to stm32f10x_gpio.o(i.GPIO_EXTILineConfig) for GPIO_EXTILineConfig
    main.o(i.acc_setup_irq) refers to stm32f10x_exti.o(i.EXTI_Init) for EXTI_Init
    main.o(i.acc_setup_irq) refers to misc.o(i.NVIC_PriorityGroupConfig) for NVIC_PriorityGroupConfig
    main.o(i.acc_setup_irq) refers to misc.o(i.NVIC_Init) for NVIC_Init
    main.o(i.acc_setup_irq) refers to main.o(.bss) for g_acc
    main.o(i.acc_setup_irq) refers to main.o(i.acc_int1_callback) for acc_int1_callback
    main.o(i.acc_setup_irq) refers to main.o(i.acc_int2_callback) for acc_int2_callback
    main.o(i.bsp_gpio_config) refers to stm32f10x_rcc.o(i.RCC_APB2PeriphClockCmd) for RCC_APB2PeriphClockCmd
    main.o(i.bsp_gpio_config) refers to stm32f10x_gpio.o(i.GPIO_Init) for GPIO_Init
    main.o(i.bsp_gpio_config) refers to stm32f10x_gpio.o(i.GPIO_ResetBits) for GPIO_ResetBits
    main.o(i.bsp_gpio_config) refers to stm32f10x_gpio.o(i.GPIO_SetBits) for GPIO_SetBits
    main.o(i.bsp_led_set) refers to stm32f10x_gpio.o(i.GPIO_ResetBits) for GPIO_ResetBits
    main.o(i.bsp_led_set) refers to stm32f10x_gpio.o(i.GPIO_SetBits) for GPIO_SetBits
    main.o(i.bsp_timer2_init) refers to stm32f10x_rcc.o(i.RCC_APB1PeriphClockCmd) for RCC_APB1PeriphClockCmd
    main.o(i.bsp_timer2_init) refers to stm32f10x_tim.o(i.TIM_TimeBaseInit) for TIM_TimeBaseInit
    main.o(i.bsp_timer2_init) refers to stm32f10x_tim.o(i.TIM_ClearFlag) for TIM_ClearFlag
    main.o(i.bsp_timer2_init) refers to stm32f10x_tim.o(i.TIM_ITConfig) for TIM_ITConfig
    main.o(i.bsp_timer2_init) refers to stm32f10x_tim.o(i.TIM_Cmd) for TIM_Cmd
    main.o(i.bsp_timer2_init) refers to misc.o(i.NVIC_PriorityGroupConfig) for NVIC_PriorityGroupConfig
    main.o(i.bsp_timer2_init) refers to misc.o(i.NVIC_Init) for NVIC_Init
    main.o(i.bsp_timer2_init) refers to system_stm32f10x.o(.data) for SystemCoreClock
    main.o(i.bsp_timer2_set) refers to stm32f10x_rcc.o(i.RCC_APB1PeriphClockCmd) for RCC_APB1PeriphClockCmd
    main.o(i.bsp_timer2_set) refers to stm32f10x_tim.o(i.TIM_ITConfig) for TIM_ITConfig
    main.o(i.bsp_timer2_set) refers to stm32f10x_tim.o(i.TIM_Cmd) for TIM_Cmd
    main.o(i.imu_calc_euler) refers to fis210x.o(i.FisImu_readStatus0) for FisImu_readStatus0
    main.o(i.imu_calc_euler) refers to fis210x.o(i.FisImu_read_xyz) for FisImu_read_xyz
    main.o(i.imu_calc_euler) refers to bsp_systick.o(i.HAL_GetTick) for HAL_GetTick
    main.o(i.imu_calc_euler) refers to ffltul.o(.text) for __aeabi_ul2f
    main.o(i.imu_calc_euler) refers to fmul.o(.text) for __aeabi_fmul
    main.o(i.imu_calc_euler) refers to imualgo.o(i.qst_algo_imu_update) for qst_algo_imu_update
    main.o(i.imu_calc_euler) refers to imualgo.o(i.qst_algo_imu_angle) for qst_algo_imu_angle
    main.o(i.imu_calc_euler) refers to f2d.o(.text) for __aeabi_f2d
    main.o(i.imu_calc_euler) refers to printfa.o(i.__0printf) for __2printf
    main.o(i.imu_calc_euler) refers to main.o(.bss) for g_out
    main.o(i.imu_drdy_callback) refers to fis210x.o(i.FisImu_read_xyz) for FisImu_read_xyz
    main.o(i.imu_drdy_callback) refers to bsp_systick.o(i.HAL_GetTick) for HAL_GetTick
    main.o(i.imu_drdy_callback) refers to ffltul.o(.text) for __aeabi_ul2f
    main.o(i.imu_drdy_callback) refers to fmul.o(.text) for __aeabi_fmul
    main.o(i.imu_drdy_callback) refers to imualgo.o(i.qst_algo_imu_update) for qst_algo_imu_update
    main.o(i.imu_drdy_callback) refers to imualgo.o(i.qst_algo_imu_angle) for qst_algo_imu_angle
    main.o(i.imu_drdy_callback) refers to f2d.o(.text) for __aeabi_f2d
    main.o(i.imu_drdy_callback) refers to printfa.o(i.__0printf) for __2printf
    main.o(i.imu_drdy_callback) refers to main.o(.bss) for g_out
    main.o(i.imu_drdy_callback_test) refers to fis210x.o(i.FisImu_read_xyz_raw) for FisImu_read_xyz_raw
    main.o(i.imu_drdy_callback_test) refers to printfa.o(i.__0printf) for __2printf
    main.o(i.imu_drdy_callback_test) refers to main.o(.data) for gyro_out_raw
    main.o(i.imu_hw_reset) refers to memseta.o(.text) for __aeabi_memclr4
    main.o(i.imu_hw_reset) refers to stm32f10x_gpio.o(i.GPIO_SetBits) for GPIO_SetBits
    main.o(i.imu_hw_reset) refers to main.o(i.qst_delay) for qst_delay
    main.o(i.imu_hw_reset) refers to stm32f10x_gpio.o(i.GPIO_ResetBits) for GPIO_ResetBits
    main.o(i.imu_hw_reset) refers to bsp_systick.o(i.HAL_GetTick) for HAL_GetTick
    main.o(i.imu_hw_reset) refers to printfa.o(i.__0printf) for __2printf
    main.o(i.imu_hw_reset) refers to main.o(.bss) for g_imu
    main.o(i.imu_polling_test) refers to fis210x.o(i.FisImu_readStatus0) for FisImu_readStatus0
    main.o(i.imu_polling_test) refers to fis210x.o(i.FisImu_read_xyz_raw) for FisImu_read_xyz_raw
    main.o(i.imu_polling_test) refers to printfa.o(i.__0printf) for __2printf
    main.o(i.imu_polling_test) refers to main.o(.data) for gyro_out_raw
    main.o(i.imu_process_irq) refers to printfa.o(i.__0printf) for __2printf
    main.o(i.imu_process_irq) refers to stm32f10x_gpio.o(i.GPIO_ResetBits) for GPIO_ResetBits
    main.o(i.imu_process_irq) refers to stm32f10x_gpio.o(i.GPIO_SetBits) for GPIO_SetBits
    main.o(i.imu_process_irq) refers to main.o(.bss) for g_imu
    main.o(i.imu_process_irq) refers to main.o(.data) for qst_mcu_sleep
    main.o(i.imu_setup_irq) refers to stm32f10x_rcc.o(i.RCC_APB2PeriphClockCmd) for RCC_APB2PeriphClockCmd
    main.o(i.imu_setup_irq) refers to stm32f10x_gpio.o(i.GPIO_Init) for GPIO_Init
    main.o(i.imu_setup_irq) refers to stm32f10x_exti.o(i.EXTI_ClearITPendingBit) for EXTI_ClearITPendingBit
    main.o(i.imu_setup_irq) refers to stm32f10x_gpio.o(i.GPIO_EXTILineConfig) for GPIO_EXTILineConfig
    main.o(i.imu_setup_irq) refers to stm32f10x_exti.o(i.EXTI_Init) for EXTI_Init
    main.o(i.imu_setup_irq) refers to misc.o(i.NVIC_PriorityGroupConfig) for NVIC_PriorityGroupConfig
    main.o(i.imu_setup_irq) refers to misc.o(i.NVIC_Init) for NVIC_Init
    main.o(i.imu_sw_cali) refers to fis210x.o(i.FisImu_read_xyz) for FisImu_read_xyz
    main.o(i.imu_sw_cali) refers to imualgo.o(i.qst_algo_imu_cali) for qst_algo_imu_cali
    main.o(i.imu_sw_cali) refers to fis210x.o(i.FisImu_readStatus0) for FisImu_readStatus0
    main.o(i.imu_sw_cali) refers to main.o(i.qst_delay) for qst_delay
    main.o(i.imu_sw_cali) refers to imualgo.o(i.qst_algo_imu_get_offset) for qst_algo_imu_get_offset
    main.o(i.imu_sw_cali) refers to main.o(.bss) for g_imu
    main.o(i.main) refers to bsp_systick.o(i.SysTick_Init) for SysTick_Init
    main.o(i.main) refers to bsp_systick.o(i.SysTick_Enable) for SysTick_Enable
    main.o(i.main) refers to bsp_usart.o(i.USART_Config) for USART_Config
    main.o(i.main) refers to main.o(i.bsp_gpio_config) for bsp_gpio_config
    main.o(i.main) refers to qst_sw_i2c.o(i.i2c_sw_gpio_config) for i2c_sw_gpio_config
    main.o(i.main) refers to printfa.o(i.__0printf) for __2printf
    main.o(i.main) refers to main.o(i.qst_delay) for qst_delay
    main.o(i.main) refers to qmp6988.o(i.qmp6988_init) for qmp6988_init
    main.o(i.main) refers to qmcx983.o(i.qmcX983_init) for qmcX983_init
    main.o(i.main) refers to qmc6308.o(i.qmc6308_init) for qmc6308_init
    main.o(i.main) refers to main.o(i.acc_setup_irq) for acc_setup_irq
    main.o(i.main) refers to qmax981.o(i.qmaX981_init) for qmaX981_init
    main.o(i.main) refers to main.o(i.imu_setup_irq) for imu_setup_irq
    main.o(i.main) refers to main.o(i.imu_hw_reset) for imu_hw_reset
    main.o(i.main) refers to fis210x.o(i.FisImu_init) for FisImu_init
    main.o(i.main) refers to bsp_systick.o(i.HAL_GetTick) for HAL_GetTick
    main.o(i.main) refers to main.o(i.imu_sw_cali) for imu_sw_cali
    main.o(i.main) refers to imualgo.o(i.qst_algo_imu_init) for qst_algo_imu_init
    main.o(i.main) refers to qmax981.o(i.qmaX981_read_acc) for qmaX981_read_acc
    main.o(i.main) refers to imualgo.o(i.qst_algo_imu_cali) for qst_algo_imu_cali
    main.o(i.main) refers to main.o(i.imu_polling_test) for imu_polling_test
    main.o(i.main) refers to main.o(i.imu_process_irq) for imu_process_irq
    main.o(i.main) refers to main.o(i.acc_process_irq) for acc_process_irq
    main.o(i.main) refers to main.o(i.qst_sensor_read) for qst_sensor_read
    main.o(i.main) refers to main.o(i.mcu_sleep_check) for mcu_sleep_check
    main.o(i.main) refers to stm32f10x_pwr.o(i.PWR_EnterSTOPMode) for PWR_EnterSTOPMode
    main.o(i.main) refers to main.o(i.mcu_sleep_exit) for mcu_sleep_exit
    main.o(i.main) refers to main.o(.data) for g_chip
    main.o(i.main) refers to main.o(.bss) for g_out
    main.o(i.main) refers to main.o(i.imu_drdy_callback_test) for imu_drdy_callback_test
    main.o(i.main) refers to bsp_systick.o(.data) for TickDelay
    main.o(i.mcu_sleep_exit) refers to main.o(i.SYSCLK_Config_WakeUp) for SYSCLK_Config_WakeUp
    main.o(i.mcu_sleep_exit) refers to bsp_usart.o(i.USART_Config) for USART_Config
    main.o(i.mcu_sleep_exit) refers to printfa.o(i.__0printf) for __2printf
    main.o(i.mcu_sleep_exit) refers to fis210x.o(i.FisImu_readStatus1) for FisImu_readStatus1
    main.o(i.mcu_sleep_exit) refers to fis210x.o(i.FisImu_disableWakeOnMotion) for FisImu_disableWakeOnMotion
    main.o(i.mcu_sleep_exit) refers to fis210x.o(i.FisImu_init) for FisImu_init
    main.o(i.mcu_sleep_exit) refers to main.o(.data) for g_chip
    main.o(i.qst_delay) refers to bsp_systick.o(.data) for TickDelay
    main.o(i.qst_sensor_read) refers to qmax981.o(i.qmaX981_read_acc) for qmaX981_read_acc
    main.o(i.qst_sensor_read) refers to imualgo.o(i.qst_algo_imu_data_process) for qst_algo_imu_data_process
    main.o(i.qst_sensor_read) refers to qmp6988.o(i.qmp6988_calc_pressure) for qmp6988_calc_pressure
    main.o(i.qst_sensor_read) refers to qmcx983.o(i.qmcX983_read_mag_xyz) for qmcX983_read_mag_xyz
    main.o(i.qst_sensor_read) refers to qmc6308.o(i.qmc6308_read_mag_xyz) for qmc6308_read_mag_xyz
    main.o(i.qst_sensor_read) refers to fflti.o(.text) for __aeabi_i2f
    main.o(i.qst_sensor_read) refers to f2d.o(.text) for __aeabi_f2d
    main.o(i.qst_sensor_read) refers to dmul.o(.text) for __aeabi_dmul
    main.o(i.qst_sensor_read) refers to d2f.o(.text) for __aeabi_d2f
    main.o(i.qst_sensor_read) refers to bsp_systick.o(i.HAL_GetTick) for HAL_GetTick
    main.o(i.qst_sensor_read) refers to ical.o(i.process) for process
    main.o(i.qst_sensor_read) refers to ddiv.o(.text) for __aeabi_ddiv
    main.o(i.qst_sensor_read) refers to ical.o(i.push2mcal) for push2mcal
    main.o(i.qst_sensor_read) refers to ical.o(i.get_mag_accuracy) for get_mag_accuracy
    main.o(i.qst_sensor_read) refers to main.o(.data) for g_chip
    main.o(i.qst_sensor_read) refers to main.o(.bss) for g_out
    stm32f10x_it.o(i.SysTick_Handler) refers to bsp_systick.o(i.HAL_IncTick) for HAL_IncTick
    bsp_systick.o(i.HAL_GetTick) refers to bsp_systick.o(.data) for uwTick
    bsp_systick.o(i.HAL_IncTick) refers to bsp_systick.o(.data) for uwTick
    bsp_systick.o(i.SysTick_Init) refers to system_stm32f10x.o(.data) for SystemCoreClock
    bsp_usart.o(i.USART_Config) refers to stm32f10x_rcc.o(i.RCC_APB2PeriphClockCmd) for RCC_APB2PeriphClockCmd
    bsp_usart.o(i.USART_Config) refers to stm32f10x_rcc.o(i.RCC_APB1PeriphClockCmd) for RCC_APB1PeriphClockCmd
    bsp_usart.o(i.USART_Config) refers to stm32f10x_gpio.o(i.GPIO_Init) for GPIO_Init
    bsp_usart.o(i.USART_Config) refers to stm32f10x_usart.o(i.USART_Init) for USART_Init
    bsp_usart.o(i.USART_Config) refers to stm32f10x_usart.o(i.USART_Cmd) for USART_Cmd
    bsp_usart.o(i.fgetc) refers to stm32f10x_usart.o(i.USART_GetFlagStatus) for USART_GetFlagStatus
    bsp_usart.o(i.fgetc) refers to stm32f10x_usart.o(i.USART_ReceiveData) for USART_ReceiveData
    bsp_usart.o(i.fputc) refers to stm32f10x_usart.o(i.USART_SendData) for USART_SendData
    bsp_usart.o(i.fputc) refers to stm32f10x_usart.o(i.USART_GetFlagStatus) for USART_GetFlagStatus
    bsp_i2c.o(i.I2C_BufferRead) refers to bsp_i2c.o(i.I2C_TIMEOUT_UserCallback) for I2C_TIMEOUT_UserCallback
    bsp_i2c.o(i.I2C_BufferRead) refers to stm32f10x_i2c.o(i.I2C_GetFlagStatus) for I2C_GetFlagStatus
    bsp_i2c.o(i.I2C_BufferRead) refers to stm32f10x_i2c.o(i.I2C_GenerateSTART) for I2C_GenerateSTART
    bsp_i2c.o(i.I2C_BufferRead) refers to stm32f10x_i2c.o(i.I2C_CheckEvent) for I2C_CheckEvent
    bsp_i2c.o(i.I2C_BufferRead) refers to stm32f10x_i2c.o(i.I2C_Send7bitAddress) for I2C_Send7bitAddress
    bsp_i2c.o(i.I2C_BufferRead) refers to stm32f10x_i2c.o(i.I2C_Cmd) for I2C_Cmd
    bsp_i2c.o(i.I2C_BufferRead) refers to stm32f10x_i2c.o(i.I2C_SendData) for I2C_SendData
    bsp_i2c.o(i.I2C_BufferRead) refers to stm32f10x_i2c.o(i.I2C_AcknowledgeConfig) for I2C_AcknowledgeConfig
    bsp_i2c.o(i.I2C_BufferRead) refers to stm32f10x_i2c.o(i.I2C_GenerateSTOP) for I2C_GenerateSTOP
    bsp_i2c.o(i.I2C_BufferRead) refers to stm32f10x_i2c.o(i.I2C_ReceiveData) for I2C_ReceiveData
    bsp_i2c.o(i.I2C_BufferRead) refers to bsp_i2c.o(.data) for i2c1_slave_address
    bsp_i2c.o(i.I2C_Bus_Init) refers to bsp_i2c.o(i.I2C_GPIO_Config) for I2C_GPIO_Config
    bsp_i2c.o(i.I2C_Bus_Init) refers to bsp_i2c.o(i.I2C_Mode_Configu) for I2C_Mode_Configu
    bsp_i2c.o(i.I2C_Bus_set_slave_addr) refers to bsp_i2c.o(.data) for i2c1_slave_address
    bsp_i2c.o(i.I2C_ByteWrite) refers to stm32f10x_i2c.o(i.I2C_GenerateSTART) for I2C_GenerateSTART
    bsp_i2c.o(i.I2C_ByteWrite) refers to bsp_i2c.o(i.I2C_TIMEOUT_UserCallback) for I2C_TIMEOUT_UserCallback
    bsp_i2c.o(i.I2C_ByteWrite) refers to stm32f10x_i2c.o(i.I2C_CheckEvent) for I2C_CheckEvent
    bsp_i2c.o(i.I2C_ByteWrite) refers to stm32f10x_i2c.o(i.I2C_Send7bitAddress) for I2C_Send7bitAddress
    bsp_i2c.o(i.I2C_ByteWrite) refers to stm32f10x_i2c.o(i.I2C_SendData) for I2C_SendData
    bsp_i2c.o(i.I2C_ByteWrite) refers to stm32f10x_i2c.o(i.I2C_GenerateSTOP) for I2C_GenerateSTOP
    bsp_i2c.o(i.I2C_ByteWrite) refers to bsp_i2c.o(.data) for i2c1_slave_address
    bsp_i2c.o(i.I2C_GPIO_Config) refers to stm32f10x_rcc.o(i.RCC_APB1PeriphClockCmd) for RCC_APB1PeriphClockCmd
    bsp_i2c.o(i.I2C_GPIO_Config) refers to stm32f10x_rcc.o(i.RCC_APB2PeriphClockCmd) for RCC_APB2PeriphClockCmd
    bsp_i2c.o(i.I2C_GPIO_Config) refers to stm32f10x_gpio.o(i.GPIO_Init) for GPIO_Init
    bsp_i2c.o(i.I2C_Mode_Configu) refers to stm32f10x_i2c.o(i.I2C_Init) for I2C_Init
    bsp_i2c.o(i.I2C_Mode_Configu) refers to stm32f10x_i2c.o(i.I2C_Cmd) for I2C_Cmd
    bsp_i2c.o(i.I2C_TIMEOUT_UserCallback) refers to printfa.o(i.__0printf) for __2printf
    bsp_i2c.o(i.I2C_WaitStandbyState) refers to stm32f10x_i2c.o(i.I2C_GenerateSTART) for I2C_GenerateSTART
    bsp_i2c.o(i.I2C_WaitStandbyState) refers to stm32f10x_i2c.o(i.I2C_ReadRegister) for I2C_ReadRegister
    bsp_i2c.o(i.I2C_WaitStandbyState) refers to stm32f10x_i2c.o(i.I2C_Send7bitAddress) for I2C_Send7bitAddress
    bsp_i2c.o(i.I2C_WaitStandbyState) refers to stm32f10x_i2c.o(i.I2C_ClearFlag) for I2C_ClearFlag
    bsp_i2c.o(i.I2C_WaitStandbyState) refers to stm32f10x_i2c.o(i.I2C_GenerateSTOP) for I2C_GenerateSTOP
    bsp_i2c.o(i.I2C_WaitStandbyState) refers to bsp_i2c.o(.data) for i2c1_slave_address
    bsp_rtc.o(i.RTC_CheckAndConfig) refers to stm32f10x_bkp.o(i.BKP_ReadBackupRegister) for BKP_ReadBackupRegister
    bsp_rtc.o(i.RTC_CheckAndConfig) refers to printfa.o(i.__0printf) for __2printf
    bsp_rtc.o(i.RTC_CheckAndConfig) refers to bsp_rtc.o(i.Time_Adjust) for Time_Adjust
    bsp_rtc.o(i.RTC_CheckAndConfig) refers to stm32f10x_bkp.o(i.BKP_WriteBackupRegister) for BKP_WriteBackupRegister
    bsp_rtc.o(i.RTC_CheckAndConfig) refers to stm32f10x_rcc.o(i.RCC_APB1PeriphClockCmd) for RCC_APB1PeriphClockCmd
    bsp_rtc.o(i.RTC_CheckAndConfig) refers to stm32f10x_pwr.o(i.PWR_BackupAccessCmd) for PWR_BackupAccessCmd
    bsp_rtc.o(i.RTC_CheckAndConfig) refers to stm32f10x_rcc.o(i.RCC_LSICmd) for RCC_LSICmd
    bsp_rtc.o(i.RTC_CheckAndConfig) refers to stm32f10x_rcc.o(i.RCC_GetFlagStatus) for RCC_GetFlagStatus
    bsp_rtc.o(i.RTC_CheckAndConfig) refers to stm32f10x_rtc.o(i.RTC_WaitForSynchro) for RTC_WaitForSynchro
    bsp_rtc.o(i.RTC_CheckAndConfig) refers to stm32f10x_rtc.o(i.RTC_ITConfig) for RTC_ITConfig
    bsp_rtc.o(i.RTC_CheckAndConfig) refers to stm32f10x_rtc.o(i.RTC_WaitForLastTask) for RTC_WaitForLastTask
    bsp_rtc.o(i.RTC_CheckAndConfig) refers to stm32f10x_rcc.o(i.RCC_ClearFlag) for RCC_ClearFlag
    bsp_rtc.o(i.RTC_Configuration) refers to stm32f10x_rcc.o(i.RCC_APB1PeriphClockCmd) for RCC_APB1PeriphClockCmd
    bsp_rtc.o(i.RTC_Configuration) refers to stm32f10x_pwr.o(i.PWR_BackupAccessCmd) for PWR_BackupAccessCmd
    bsp_rtc.o(i.RTC_Configuration) refers to stm32f10x_bkp.o(i.BKP_DeInit) for BKP_DeInit
    bsp_rtc.o(i.RTC_Configuration) refers to stm32f10x_rcc.o(i.RCC_LSICmd) for RCC_LSICmd
    bsp_rtc.o(i.RTC_Configuration) refers to stm32f10x_rcc.o(i.RCC_GetFlagStatus) for RCC_GetFlagStatus
    bsp_rtc.o(i.RTC_Configuration) refers to stm32f10x_rcc.o(i.RCC_RTCCLKConfig) for RCC_RTCCLKConfig
    bsp_rtc.o(i.RTC_Configuration) refers to stm32f10x_rcc.o(i.RCC_RTCCLKCmd) for RCC_RTCCLKCmd
    bsp_rtc.o(i.RTC_Configuration) refers to stm32f10x_rtc.o(i.RTC_WaitForSynchro) for RTC_WaitForSynchro
    bsp_rtc.o(i.RTC_Configuration) refers to stm32f10x_rtc.o(i.RTC_WaitForLastTask) for RTC_WaitForLastTask
    bsp_rtc.o(i.RTC_Configuration) refers to stm32f10x_rtc.o(i.RTC_ITConfig) for RTC_ITConfig
    bsp_rtc.o(i.RTC_Configuration) refers to stm32f10x_rtc.o(i.RTC_SetPrescaler) for RTC_SetPrescaler
    bsp_rtc.o(i.RTC_NVIC_Config) refers to misc.o(i.NVIC_PriorityGroupConfig) for NVIC_PriorityGroupConfig
    bsp_rtc.o(i.RTC_NVIC_Config) refers to misc.o(i.NVIC_Init) for NVIC_Init
    bsp_rtc.o(i.Time_Adjust) refers to bsp_rtc.o(i.RTC_Configuration) for RTC_Configuration
    bsp_rtc.o(i.Time_Adjust) refers to stm32f10x_rtc.o(i.RTC_WaitForLastTask) for RTC_WaitForLastTask
    bsp_rtc.o(i.Time_Adjust) refers to bsp_date.o(i.GregorianDay) for GregorianDay
    bsp_rtc.o(i.Time_Adjust) refers to bsp_date.o(i.mktimev) for mktimev
    bsp_rtc.o(i.Time_Adjust) refers to stm32f10x_rtc.o(i.RTC_SetCounter) for RTC_SetCounter
    bsp_rtc.o(i.Time_Display) refers to bsp_date.o(i.to_tm) for to_tm
    bsp_rtc.o(i.Time_Display) refers to bsp_calendar.o(i.GetChinaCalendar) for GetChinaCalendar
    bsp_rtc.o(i.Time_Display) refers to printfa.o(i.__0printf) for __2printf
    bsp_rtc.o(i.Time_Display) refers to bsp_calendar.o(i.GetChinaCalendarStr) for GetChinaCalendarStr
    bsp_rtc.o(i.Time_Display) refers to bsp_calendar.o(i.GetJieQiStr) for GetJieQiStr
    bsp_rtc.o(i.Time_Display) refers to bsp_rtc.o(.data) for FirstDisplay
    bsp_rtc.o(i.Time_Display) refers to bsp_rtc.o(.conststring) for .conststring
    bsp_rtc.o(i.Time_Regulate_Get) refers to _scanf_int.o(.text) for _scanf_int
    bsp_rtc.o(i.Time_Regulate_Get) refers to printfa.o(i.__0printf) for __2printf
    bsp_rtc.o(i.Time_Regulate_Get) refers to __0scanf.o(.text) for __0scanf
    bsp_rtc.o(i.Time_Regulate_Get) refers to bsp_rtc.o(.conststring) for .conststring
    bsp_rtc.o(i.Time_Show) refers to stm32f10x_rtc.o(i.RTC_GetCounter) for RTC_GetCounter
    bsp_rtc.o(i.Time_Show) refers to bsp_rtc.o(i.Time_Display) for Time_Display
    bsp_rtc.o(i.Time_Show) refers to bsp_rtc.o(.data) for TimeDisplay
    bsp_rtc.o(.data) refers to bsp_rtc.o(.conststring) for .conststring
    bsp_date.o(i.GregorianDay) refers to memcpya.o(.text) for __aeabi_memcpy4
    bsp_date.o(i.GregorianDay) refers to bsp_date.o(.constdata) for .constdata
    bsp_date.o(i.to_tm) refers to bsp_date.o(i.GregorianDay) for GregorianDay
    bsp_date.o(i.to_tm) refers to bsp_date.o(.data) for month_days
    bsp_calendar.o(i.GetChinaCalendar) refers to bsp_calendar.o(i.GetMoonDay) for GetMoonDay
    bsp_calendar.o(i.GetChinaCalendar) refers to bsp_calendar.o(.constdata) for year_code
    bsp_calendar.o(i.GetChinaCalendarStr) refers to bsp_calendar.o(i.StrCopy) for StrCopy
    bsp_calendar.o(i.GetChinaCalendarStr) refers to bsp_calendar.o(i.GetChinaCalendar) for GetChinaCalendar
    bsp_calendar.o(i.GetChinaCalendarStr) refers to bsp_calendar.o(i.GetSkyEarth) for GetSkyEarth
    bsp_calendar.o(i.GetChinaCalendarStr) refers to bsp_calendar.o(.data) for sky
    bsp_calendar.o(i.GetJieQi) refers to bsp_calendar.o(.constdata) for YearMonthBit
    bsp_calendar.o(i.GetJieQiStr) refers to bsp_calendar.o(i.GetJieQi) for GetJieQi
    bsp_calendar.o(i.GetJieQiStr) refers to bsp_calendar.o(i.StrCopy) for StrCopy
    bsp_calendar.o(i.GetJieQiStr) refers to bsp_calendar.o(.data) for JieQiStr
    bsp_calendar.o(i.GetJieQiStr) refers to bsp_calendar.o(.constdata) for MonthDayMax
    bsp_calendar.o(i.GetMoonDay) refers to bsp_calendar.o(.constdata) for year_code
    bsp_calendar.o(.data) refers to bsp_calendar.o(.conststring) for .conststring
    qmax981.o(i.qma6981_initialize) refers to qmax981.o(i.qmaX981_delay) for qmaX981_delay
    qmax981.o(i.qma6981_initialize) refers to qmax981.o(i.qmaX981_writereg) for qmaX981_writereg
    qmax981.o(i.qma6981_initialize) refers to printfa.o(i.__0printf) for __2printf
    qmax981.o(i.qma6981_initialize) refers to qmax981.o(.constdata) for qma6981_init_tbl
    qmax981.o(i.qma6981_initialize) refers to qmax981.o(.bss) for g_qmaX981
    qmax981.o(i.qma6981_read_raw_xyz) refers to qmax981.o(i.qmaX981_readreg) for qmaX981_readreg
    qmax981.o(i.qma6981_read_raw_xyz) refers to printfa.o(i.__0printf) for __2printf
    qmax981.o(i.qma7981_initialize) refers to qmax981.o(i.qmaX981_delay) for qmaX981_delay
    qmax981.o(i.qma7981_initialize) refers to qmax981.o(i.qmaX981_writereg) for qmaX981_writereg
    qmax981.o(i.qma7981_initialize) refers to printfa.o(i.__0printf) for __2printf
    qmax981.o(i.qma7981_initialize) refers to qmax981.o(i.qmaX981_readreg) for qmaX981_readreg
    qmax981.o(i.qma7981_initialize) refers to qmax981.o(.constdata) for qma7981_init_tbl
    qmax981.o(i.qma7981_initialize) refers to qmax981.o(.bss) for g_qmaX981
    qmax981.o(i.qma7981_read_raw_xyz) refers to qmax981.o(i.qmaX981_readreg) for qmaX981_readreg
    qmax981.o(i.qma7981_read_raw_xyz) refers to printfa.o(i.__0printf) for __2printf
    qmax981.o(i.qma7981_v2_initialize) refers to qmax981.o(i.qmaX981_delay) for qmaX981_delay
    qmax981.o(i.qma7981_v2_initialize) refers to qmax981.o(i.qmaX981_writereg) for qmaX981_writereg
    qmax981.o(i.qma7981_v2_initialize) refers to printfa.o(i.__0printf) for __2printf
    qmax981.o(i.qma7981_v2_initialize) refers to qmax981.o(i.qmaX981_readreg) for qmaX981_readreg
    qmax981.o(i.qma7981_v2_initialize) refers to qmax981.o(.constdata) for qma7981_init_tbl
    qmax981.o(i.qma7981_v2_initialize) refers to qmax981.o(.bss) for g_qmaX981
    qmax981.o(i.qmaX981_check_no_motion) refers to qmax981.o(i.qma7981_read_raw_xyz) for qma7981_read_raw_xyz
    qmax981.o(i.qmaX981_check_no_motion) refers to printfa.o(i.__0printf) for __2printf
    qmax981.o(i.qmaX981_check_no_motion) refers to qmax981.o(.bss) for g_nm
    qmax981.o(i.qmaX981_chip_id) refers to qmax981.o(i.qmaX981_readreg) for qmaX981_readreg
    qmax981.o(i.qmaX981_chip_id) refers to printfa.o(i.__0printf) for __2printf
    qmax981.o(i.qmaX981_init) refers to qmax981.o(i.qmaX981_chip_id) for qmaX981_chip_id
    qmax981.o(i.qmaX981_init) refers to printfa.o(i.__0printf) for __2printf
    qmax981.o(i.qmaX981_init) refers to qmax981.o(i.qma6981_initialize) for qma6981_initialize
    qmax981.o(i.qmaX981_init) refers to qmax981.o(i.qma7981_initialize) for qma7981_initialize
    qmax981.o(i.qmaX981_init) refers to qmax981.o(i.qma7981_v2_initialize) for qma7981_v2_initialize
    qmax981.o(i.qmaX981_init) refers to qmax981.o(.bss) for g_qmaX981
    qmax981.o(i.qmaX981_init) refers to qmax981.o(.data) for QMAX981_I2C_ADDR
    qmax981.o(i.qmaX981_init) refers to qmax981.o(.constdata) for qst_map
    qmax981.o(i.qmaX981_irq_hdlr) refers to qmax981.o(i.qmaX981_readreg) for qmaX981_readreg
    qmax981.o(i.qmaX981_irq_hdlr) refers to printfa.o(i.__0printf) for __2printf
    qmax981.o(i.qmaX981_irq_hdlr) refers to qmax981.o(i.qmaX981_check_no_motion) for qmaX981_check_no_motion
    qmax981.o(i.qmaX981_irq_hdlr) refers to qmax981.o(.bss) for g_qmaX981
    qmax981.o(i.qmaX981_read_acc) refers to qmax981.o(i.qmaX981_read_raw) for qmaX981_read_raw
    qmax981.o(i.qmaX981_read_acc) refers to fflti.o(.text) for __aeabi_i2f
    qmax981.o(i.qmaX981_read_acc) refers to fmul.o(.text) for __aeabi_fmul
    qmax981.o(i.qmaX981_read_acc) refers to fdiv.o(.text) for __aeabi_fdiv
    qmax981.o(i.qmaX981_read_acc) refers to qmax981.o(.bss) for g_qmaX981
    qmax981.o(i.qmaX981_read_raw) refers to qmax981.o(i.qma6981_read_raw_xyz) for qma6981_read_raw_xyz
    qmax981.o(i.qmaX981_read_raw) refers to qmax981.o(i.qma7981_read_raw_xyz) for qma7981_read_raw_xyz
    qmax981.o(i.qmaX981_read_raw) refers to qmax981.o(.bss) for g_qmaX981
    qmax981.o(i.qmaX981_readreg) refers to qst_sw_i2c.o(i.qst_sw_readreg) for qst_sw_readreg
    qmax981.o(i.qmaX981_readreg) refers to qmax981.o(.data) for QMAX981_I2C_ADDR
    qmax981.o(i.qmaX981_writereg) refers to qst_sw_i2c.o(i.qst_sw_writereg) for qst_sw_writereg
    qmax981.o(i.qmaX981_writereg) refers to qmax981.o(.data) for QMAX981_I2C_ADDR
    qmcx983.o(i.qmcX983_ReadData) refers to qst_sw_i2c.o(i.qst_sw_readreg) for qst_sw_readreg
    qmcx983.o(i.qmcX983_WriteReg) refers to qst_sw_i2c.o(i.qst_sw_writereg) for qst_sw_writereg
    qmcx983.o(i.qmcX983_device_check) refers to qmcx983.o(i.qmcX983_ReadData) for qmcX983_ReadData
    qmcx983.o(i.qmcX983_device_check) refers to printfa.o(i.__0printf) for __2printf
    qmcx983.o(i.qmcX983_device_check) refers to qmcx983.o(i.qmcX983_WriteReg) for qmcX983_WriteReg
    qmcx983.o(i.qmcX983_device_check) refers to qmcx983.o(.constdata) for __func__
    qmcx983.o(i.qmcX983_device_check) refers to qmcx983.o(.bss) for g_qmcX983
    qmcx983.o(i.qmcX983_enable) refers to qmcx983.o(i.qmcX983_WriteReg) for qmcX983_WriteReg
    qmcx983.o(i.qmcX983_enable) refers to printfa.o(i.__0printf) for __2printf
    qmcx983.o(i.qmcX983_enable) refers to qmcx983.o(i.qmcX983_delay) for qmcX983_delay
    qmcx983.o(i.qmcX983_enable) refers to qmcx983.o(i.qmcX983_start_measure) for qmcX983_start_measure
    qmcx983.o(i.qmcX983_enable) refers to qmcx983.o(.bss) for g_qmcX983
    qmcx983.o(i.qmcX983_get_orientation) refers to qmcx983.o(i.qmcX983_read_mag_xyz) for qmcX983_read_mag_xyz
    qmcx983.o(i.qmcX983_get_orientation) refers to f2d.o(.text) for __aeabi_f2d
    qmcx983.o(i.qmcX983_get_orientation) refers to dmul.o(.text) for __aeabi_dmul
    qmcx983.o(i.qmcX983_get_orientation) refers to d2f.o(.text) for __aeabi_d2f
    qmcx983.o(i.qmcX983_init) refers to qmcx983.o(i.qmcX983_delay) for qmcX983_delay
    qmcx983.o(i.qmcX983_init) refers to qmcx983.o(i.qmcX983_WriteReg) for qmcX983_WriteReg
    qmcx983.o(i.qmcX983_init) refers to qmcx983.o(i.qmcX983_device_check) for qmcX983_device_check
    qmcx983.o(i.qmcX983_init) refers to printfa.o(i.__0printf) for __2printf
    qmcx983.o(i.qmcX983_init) refers to qmcx983.o(i.qmcX983_enable) for qmcX983_enable
    qmcx983.o(i.qmcX983_init) refers to qmcx983.o(i.qmcx983_get_OPT) for qmcx983_get_OPT
    qmcx983.o(i.qmcX983_init) refers to qmcx983.o(.bss) for g_qmcX983
    qmcx983.o(i.qmcX983_init) refers to qmcx983.o(.data) for qmcX983_map
    qmcx983.o(i.qmcX983_read_mag_xyz) refers to qmcx983.o(i.qmcX983_ReadData) for qmcX983_ReadData
    qmcx983.o(i.qmcX983_read_mag_xyz) refers to fflti.o(.text) for __aeabi_i2f
    qmcx983.o(i.qmcX983_read_mag_xyz) refers to fdiv.o(.text) for __aeabi_fdiv
    qmcx983.o(i.qmcX983_read_mag_xyz) refers to fmul.o(.text) for __aeabi_fmul
    qmcx983.o(i.qmcX983_read_mag_xyz) refers to fadd.o(.text) for __aeabi_frsub
    qmcx983.o(i.qmcX983_read_mag_xyz) refers to qmcx983.o(.bss) for g_qmcX983
    qmcx983.o(i.qmcX983_start_measure) refers to qmcx983.o(i.qmcX983_WriteReg) for qmcX983_WriteReg
    qmcx983.o(i.qmcX983_stop_measure) refers to qmcx983.o(i.qmcX983_WriteReg) for qmcX983_WriteReg
    qmcx983.o(i.qmcx983_get_OPT) refers to qmcx983.o(i.qmcX983_WriteReg) for qmcX983_WriteReg
    qmcx983.o(i.qmcx983_get_OPT) refers to printfa.o(i.__0printf) for __2printf
    qmcx983.o(i.qmcx983_get_OPT) refers to qmcx983.o(i.qmcX983_delay) for qmcX983_delay
    qmcx983.o(i.qmcx983_get_OPT) refers to qmcx983.o(i.qmcX983_ReadData) for qmcX983_ReadData
    qmcx983.o(i.qmcx983_get_OPT) refers to qmcx983.o(.bss) for g_qmcX983
    qmcx983.o(i.qmcx983_get_OPT) refers to qmcx983.o(.constdata) for __func__
    bsp_spi.o(i.SPI_TIMEOUT_UserCallback) refers to printfa.o(i.__0printf) for __2printf
    bsp_spi.o(i.Spi_Init) refers to stm32f10x_rcc.o(i.RCC_APB2PeriphClockCmd) for RCC_APB2PeriphClockCmd
    bsp_spi.o(i.Spi_Init) refers to stm32f10x_gpio.o(i.GPIO_Init) for GPIO_Init
    bsp_spi.o(i.Spi_Init) refers to stm32f10x_gpio.o(i.GPIO_SetBits) for GPIO_SetBits
    bsp_spi.o(i.Spi_Init) refers to bsp_spi.o(i.spi_struct_config) for spi_struct_config
    bsp_spi.o(i.Spi_Init) refers to stm32f10x_spi.o(i.SPI_Cmd) for SPI_Cmd
    bsp_spi.o(i.Spi_SendByte) refers to bsp_spi.o(i.SPI_TIMEOUT_UserCallback) for SPI_TIMEOUT_UserCallback
    bsp_spi.o(i.Spi_SendByte) refers to stm32f10x_spi.o(i.SPI_I2S_GetFlagStatus) for SPI_I2S_GetFlagStatus
    bsp_spi.o(i.Spi_SendByte) refers to stm32f10x_spi.o(i.SPI_I2S_SendData) for SPI_I2S_SendData
    bsp_spi.o(i.Spi_SendByte) refers to stm32f10x_spi.o(i.SPI_I2S_ReceiveData) for SPI_I2S_ReceiveData
    bsp_spi.o(i.Spi_SendByte) refers to bsp_spi.o(.data) for SPITimeout
    bsp_spi.o(i.bmi160_spi_read) refers to stm32f10x_gpio.o(i.GPIO_ResetBits) for GPIO_ResetBits
    bsp_spi.o(i.bmi160_spi_read) refers to bsp_spi.o(i.spi_delay) for spi_delay
    bsp_spi.o(i.bmi160_spi_read) refers to bsp_spi.o(i.Spi_SendByte) for Spi_SendByte
    bsp_spi.o(i.bmi160_spi_read) refers to stm32f10x_gpio.o(i.GPIO_SetBits) for GPIO_SetBits
    bsp_spi.o(i.bmi160_spi_write) refers to stm32f10x_gpio.o(i.GPIO_ResetBits) for GPIO_ResetBits
    bsp_spi.o(i.bmi160_spi_write) refers to bsp_spi.o(i.spi_delay) for spi_delay
    bsp_spi.o(i.bmi160_spi_write) refers to bsp_spi.o(i.Spi_SendByte) for Spi_SendByte
    bsp_spi.o(i.bmi160_spi_write) refers to stm32f10x_gpio.o(i.GPIO_SetBits) for GPIO_SetBits
    bsp_spi.o(i.qmaX981_spi_read) refers to stm32f10x_gpio.o(i.GPIO_ResetBits) for GPIO_ResetBits
    bsp_spi.o(i.qmaX981_spi_read) refers to bsp_spi.o(i.spi_delay) for spi_delay
    bsp_spi.o(i.qmaX981_spi_read) refers to bsp_spi.o(i.Spi_SendByte) for Spi_SendByte
    bsp_spi.o(i.qmaX981_spi_read) refers to stm32f10x_gpio.o(i.GPIO_SetBits) for GPIO_SetBits
    bsp_spi.o(i.qmaX981_spi_write) refers to stm32f10x_gpio.o(i.GPIO_ResetBits) for GPIO_ResetBits
    bsp_spi.o(i.qmaX981_spi_write) refers to bsp_spi.o(i.spi_delay) for spi_delay
    bsp_spi.o(i.qmaX981_spi_write) refers to bsp_spi.o(i.Spi_SendByte) for Spi_SendByte
    bsp_spi.o(i.qmaX981_spi_write) refers to stm32f10x_gpio.o(i.GPIO_SetBits) for GPIO_SetBits
    bsp_spi.o(i.qmp6988_spi_read) refers to stm32f10x_gpio.o(i.GPIO_ResetBits) for GPIO_ResetBits
    bsp_spi.o(i.qmp6988_spi_read) refers to bsp_spi.o(i.spi_delay) for spi_delay
    bsp_spi.o(i.qmp6988_spi_read) refers to bsp_spi.o(i.Spi_SendByte) for Spi_SendByte
    bsp_spi.o(i.qmp6988_spi_read) refers to stm32f10x_gpio.o(i.GPIO_SetBits) for GPIO_SetBits
    bsp_spi.o(i.qmp6988_spi_write) refers to stm32f10x_gpio.o(i.GPIO_ResetBits) for GPIO_ResetBits
    bsp_spi.o(i.qmp6988_spi_write) refers to bsp_spi.o(i.spi_delay) for spi_delay
    bsp_spi.o(i.qmp6988_spi_write) refers to bsp_spi.o(i.Spi_SendByte) for Spi_SendByte
    bsp_spi.o(i.qmp6988_spi_write) refers to stm32f10x_gpio.o(i.GPIO_SetBits) for GPIO_SetBits
    bsp_spi.o(i.qst_fis210x_spi_read) refers to stm32f10x_gpio.o(i.GPIO_ResetBits) for GPIO_ResetBits
    bsp_spi.o(i.qst_fis210x_spi_read) refers to bsp_spi.o(i.spi_delay) for spi_delay
    bsp_spi.o(i.qst_fis210x_spi_read) refers to bsp_spi.o(i.Spi_SendByte) for Spi_SendByte
    bsp_spi.o(i.qst_fis210x_spi_read) refers to stm32f10x_gpio.o(i.GPIO_SetBits) for GPIO_SetBits
    bsp_spi.o(i.qst_fis210x_spi_write) refers to stm32f10x_gpio.o(i.GPIO_ResetBits) for GPIO_ResetBits
    bsp_spi.o(i.qst_fis210x_spi_write) refers to bsp_spi.o(i.spi_delay) for spi_delay
    bsp_spi.o(i.qst_fis210x_spi_write) refers to bsp_spi.o(i.Spi_SendByte) for Spi_SendByte
    bsp_spi.o(i.qst_fis210x_spi_write) refers to stm32f10x_gpio.o(i.GPIO_SetBits) for GPIO_SetBits
    bsp_spi.o(i.qst_fis210x_spi_write_bytes) refers to bsp_spi.o(i.qst_fis210x_spi_write) for qst_fis210x_spi_write
    bsp_spi.o(i.spi_struct_config) refers to stm32f10x_spi.o(i.SPI_Init) for SPI_Init
    qmp6988.o(i.qmp6988_ReadData) refers to qst_sw_i2c.o(i.qst_sw_readreg) for qst_sw_readreg
    qmp6988.o(i.qmp6988_WriteReg) refers to qst_sw_i2c.o(i.qst_sw_writereg) for qst_sw_writereg
    qmp6988.o(i.qmp6988_calc_altitude) refers to f2d.o(.text) for __aeabi_f2d
    qmp6988.o(i.qmp6988_calc_altitude) refers to dadd.o(.text) for __aeabi_dadd
    qmp6988.o(i.qmp6988_calc_altitude) refers to fdiv.o(.text) for __aeabi_fdiv
    qmp6988.o(i.qmp6988_calc_altitude) refers to pow.o(i.pow) for pow
    qmp6988.o(i.qmp6988_calc_altitude) refers to dmul.o(.text) for __aeabi_dmul
    qmp6988.o(i.qmp6988_calc_altitude) refers to ddiv.o(.text) for __aeabi_ddiv
    qmp6988.o(i.qmp6988_calc_altitude) refers to d2f.o(.text) for __aeabi_d2f
    qmp6988.o(i.qmp6988_calc_pressure) refers to qmp6988.o(i.qmp6988_ReadData) for qmp6988_ReadData
    qmp6988.o(i.qmp6988_calc_pressure) refers to printfa.o(i.__0printf) for __2printf
    qmp6988.o(i.qmp6988_calc_pressure) refers to qmp6988.o(i.qmp6988_convTx_02e) for qmp6988_convTx_02e
    qmp6988.o(i.qmp6988_calc_pressure) refers to qmp6988.o(i.qmp6988_get_pressure_02e) for qmp6988_get_pressure_02e
    qmp6988.o(i.qmp6988_calc_pressure) refers to fflti.o(.text) for __aeabi_i2f
    qmp6988.o(i.qmp6988_calc_pressure) refers to fdiv.o(.text) for __aeabi_fdiv
    qmp6988.o(i.qmp6988_calc_pressure) refers to qmp6988.o(i.qmp6988_calc_altitude) for qmp6988_calc_altitude
    qmp6988.o(i.qmp6988_convTx_02e) refers to ldiv.o(.text) for __aeabi_ldivmod
    qmp6988.o(i.qmp6988_device_check) refers to qmp6988.o(i.qmp6988_ReadData) for qmp6988_ReadData
    qmp6988.o(i.qmp6988_device_check) refers to printfa.o(i.__0printf) for __2printf
    qmp6988.o(i.qmp6988_device_check) refers to qmp6988.o(.constdata) for __func__
    qmp6988.o(i.qmp6988_get_calibration_data) refers to memseta.o(.text) for __aeabi_memclr4
    qmp6988.o(i.qmp6988_get_calibration_data) refers to qmp6988.o(i.qmp6988_ReadData) for qmp6988_ReadData
    qmp6988.o(i.qmp6988_get_calibration_data) refers to printfa.o(i.__0printf) for __2printf
    qmp6988.o(i.qmp6988_get_pressure_02e) refers to ldiv.o(.text) for __aeabi_ldivmod
    qmp6988.o(i.qmp6988_init) refers to qmp6988.o(i.qmp6988_delay) for qmp6988_delay
    qmp6988.o(i.qmp6988_init) refers to qmp6988.o(i.qmp6988_device_check) for qmp6988_device_check
    qmp6988.o(i.qmp6988_init) refers to qmp6988.o(i.qmp6988_software_reset) for qmp6988_software_reset
    qmp6988.o(i.qmp6988_init) refers to qmp6988.o(i.qmp6988_get_calibration_data) for qmp6988_get_calibration_data
    qmp6988.o(i.qmp6988_init) refers to qmp6988.o(i.qmp6988_set_powermode) for qmp6988_set_powermode
    qmp6988.o(i.qmp6988_init) refers to qmp6988.o(i.qmp6988_set_filter) for qmp6988_set_filter
    qmp6988.o(i.qmp6988_init) refers to qmp6988.o(i.qmp6988_set_oversampling_p) for qmp6988_set_oversampling_p
    qmp6988.o(i.qmp6988_init) refers to qmp6988.o(i.qmp6988_set_oversampling_t) for qmp6988_set_oversampling_t
    qmp6988.o(i.qmp6988_set_filter) refers to qmp6988.o(i.qmp6988_WriteReg) for qmp6988_WriteReg
    qmp6988.o(i.qmp6988_set_filter) refers to qmp6988.o(i.qmp6988_delay) for qmp6988_delay
    qmp6988.o(i.qmp6988_set_oversampling_p) refers to qmp6988.o(i.qmp6988_ReadData) for qmp6988_ReadData
    qmp6988.o(i.qmp6988_set_oversampling_p) refers to qmp6988.o(i.qmp6988_WriteReg) for qmp6988_WriteReg
    qmp6988.o(i.qmp6988_set_oversampling_p) refers to qmp6988.o(i.qmp6988_delay) for qmp6988_delay
    qmp6988.o(i.qmp6988_set_oversampling_t) refers to qmp6988.o(i.qmp6988_ReadData) for qmp6988_ReadData
    qmp6988.o(i.qmp6988_set_oversampling_t) refers to qmp6988.o(i.qmp6988_WriteReg) for qmp6988_WriteReg
    qmp6988.o(i.qmp6988_set_oversampling_t) refers to qmp6988.o(i.qmp6988_delay) for qmp6988_delay
    qmp6988.o(i.qmp6988_set_powermode) refers to printfa.o(i.__0printf) for __2printf
    qmp6988.o(i.qmp6988_set_powermode) refers to qmp6988.o(i.qmp6988_ReadData) for qmp6988_ReadData
    qmp6988.o(i.qmp6988_set_powermode) refers to qmp6988.o(i.qmp6988_WriteReg) for qmp6988_WriteReg
    qmp6988.o(i.qmp6988_set_powermode) refers to qmp6988.o(i.qmp6988_delay) for qmp6988_delay
    fis210x.o(i.FisImu_Config_apply) refers to fis210x.o(i.FisImu_config_ae) for FisImu_config_ae
    fis210x.o(i.FisImu_Config_apply) refers to fis210x.o(i.FisImu_config_acc) for FisImu_config_acc
    fis210x.o(i.FisImu_Config_apply) refers to fis210x.o(i.FisImu_config_gyro) for FisImu_config_gyro
    fis210x.o(i.FisImu_Config_apply) refers to fis210x.o(i.FisImu_config_mag) for FisImu_config_mag
    fis210x.o(i.FisImu_Config_apply) refers to fis210x.o(i.FisImu_enableSensors) for FisImu_enableSensors
    fis210x.o(i.FisImu_applyAccelerometerOffset) refers to fis210x.o(i.writeCalibrationVectorBuffer) for writeCalibrationVectorBuffer
    fis210x.o(i.FisImu_applyAccelerometerOffset) refers to fis210x.o(i.FisImu_doCtrl9Command) for FisImu_doCtrl9Command
    fis210x.o(i.FisImu_applyGyroscopeOffset) refers to fis210x.o(i.writeCalibrationVectorBuffer) for writeCalibrationVectorBuffer
    fis210x.o(i.FisImu_applyGyroscopeOffset) refers to fis210x.o(i.FisImu_doCtrl9Command) for FisImu_doCtrl9Command
    fis210x.o(i.FisImu_applyOffsetCalibration) refers to fis210x.o(i.FisImu_applyAccelerometerOffset) for FisImu_applyAccelerometerOffset
    fis210x.o(i.FisImu_applyOffsetCalibration) refers to fis210x.o(i.FisImu_applyGyroscopeOffset) for FisImu_applyGyroscopeOffset
    fis210x.o(i.FisImu_config_acc) refers to fis210x.o(i.FisImu_write_reg) for FisImu_write_reg
    fis210x.o(i.FisImu_config_acc) refers to fis210x.o(i.FisImu_read_reg) for FisImu_read_reg
    fis210x.o(i.FisImu_config_acc) refers to fis210x.o(.data) for acc_lsb_div
    fis210x.o(i.FisImu_config_ae) refers to fis210x.o(i.FisImu_config_acc) for FisImu_config_acc
    fis210x.o(i.FisImu_config_ae) refers to fis210x.o(i.FisImu_config_gyro) for FisImu_config_gyro
    fis210x.o(i.FisImu_config_ae) refers to fis210x.o(i.FisImu_write_reg) for FisImu_write_reg
    fis210x.o(i.FisImu_config_gyro) refers to fis210x.o(i.FisImu_write_reg) for FisImu_write_reg
    fis210x.o(i.FisImu_config_gyro) refers to fis210x.o(i.FisImu_read_reg) for FisImu_read_reg
    fis210x.o(i.FisImu_config_gyro) refers to fis210x.o(.data) for gyro_lsb_div
    fis210x.o(i.FisImu_disableWakeOnMotion) refers to fis210x.o(i.FisImu_enableSensors) for FisImu_enableSensors
    fis210x.o(i.FisImu_disableWakeOnMotion) refers to fis210x.o(i.FisImu_write_reg) for FisImu_write_reg
    fis210x.o(i.FisImu_disableWakeOnMotion) refers to fis210x.o(i.FisImu_doCtrl9Command) for FisImu_doCtrl9Command
    fis210x.o(i.FisImu_doCtrl9Command) refers to fis210x.o(i.FisImu_read_reg) for FisImu_read_reg
    fis210x.o(i.FisImu_doCtrl9Command) refers to fis210x.o(i.FisImu_write_reg) for FisImu_write_reg
    fis210x.o(i.FisImu_enableSensors) refers to fis210x.o(i.FisImu_write_reg) for FisImu_write_reg
    fis210x.o(i.FisImu_enableWakeOnMotion) refers to fis210x.o(i.FisImu_enableSensors) for FisImu_enableSensors
    fis210x.o(i.FisImu_enableWakeOnMotion) refers to fis210x.o(i.FisImu_config_acc) for FisImu_config_acc
    fis210x.o(i.FisImu_enableWakeOnMotion) refers to fis210x.o(i.FisImu_write_reg) for FisImu_write_reg
    fis210x.o(i.FisImu_enableWakeOnMotion) refers to fis210x.o(i.FisImu_doCtrl9Command) for FisImu_doCtrl9Command
    fis210x.o(i.FisImu_init) refers to fis210x.o(i.FisImu_read_reg) for FisImu_read_reg
    fis210x.o(i.FisImu_init) refers to fis210x.o(i.FisImu_Config_apply) for FisImu_Config_apply
    fis210x.o(i.FisImu_init) refers to printfa.o(i.__0printf) for __2printf
    fis210x.o(i.FisImu_init) refers to fis210x.o(i.FisImu_set_layout) for FisImu_set_layout
    fis210x.o(i.FisImu_init) refers to fis210x.o(.data) for fisimu_config
    fis210x.o(i.FisImu_processAccelerometerData) refers to ffltui.o(.text) for __aeabi_ui2f
    fis210x.o(i.FisImu_processAccelerometerData) refers to fdiv.o(.text) for __aeabi_fdiv
    fis210x.o(i.FisImu_processAccelerometerData) refers to fis210x.o(i.applyScaleFactor) for applyScaleFactor
    fis210x.o(i.FisImu_processAccelerometerData) refers to fis210x.o(.data) for acc_lsb_div
    fis210x.o(i.FisImu_processGyroscopeData) refers to fflti.o(.text) for __aeabi_i2f
    fis210x.o(i.FisImu_processGyroscopeData) refers to fdiv.o(.text) for __aeabi_fdiv
    fis210x.o(i.FisImu_processGyroscopeData) refers to fis210x.o(i.applyScaleFactor) for applyScaleFactor
    fis210x.o(i.FisImu_processGyroscopeData) refers to fis210x.o(.data) for gyro_lsb_div
    fis210x.o(i.FisImu_readStatus0) refers to fis210x.o(i.FisImu_read_reg) for FisImu_read_reg
    fis210x.o(i.FisImu_readStatus1) refers to fis210x.o(i.FisImu_read_reg) for FisImu_read_reg
    fis210x.o(i.FisImu_readTemp) refers to fis210x.o(i.FisImu_read_reg) for FisImu_read_reg
    fis210x.o(i.FisImu_read_acc_xyz) refers to fis210x.o(i.FisImu_read_reg) for FisImu_read_reg
    fis210x.o(i.FisImu_read_acc_xyz) refers to ffltui.o(.text) for __aeabi_ui2f
    fis210x.o(i.FisImu_read_acc_xyz) refers to fflti.o(.text) for __aeabi_i2f
    fis210x.o(i.FisImu_read_acc_xyz) refers to fmul.o(.text) for __aeabi_fmul
    fis210x.o(i.FisImu_read_acc_xyz) refers to fdiv.o(.text) for __aeabi_fdiv
    fis210x.o(i.FisImu_read_acc_xyz) refers to f2d.o(.text) for __aeabi_f2d
    fis210x.o(i.FisImu_read_acc_xyz) refers to printfa.o(i.__0printf) for __2printf
    fis210x.o(i.FisImu_read_acc_xyz) refers to fis210x.o(.data) for acc_lsb_div
    fis210x.o(i.FisImu_read_gyro_xyz) refers to fis210x.o(i.FisImu_read_reg) for FisImu_read_reg
    fis210x.o(i.FisImu_read_gyro_xyz) refers to ffltui.o(.text) for __aeabi_ui2f
    fis210x.o(i.FisImu_read_gyro_xyz) refers to fflti.o(.text) for __aeabi_i2f
    fis210x.o(i.FisImu_read_gyro_xyz) refers to fmul.o(.text) for __aeabi_fmul
    fis210x.o(i.FisImu_read_gyro_xyz) refers to fdiv.o(.text) for __aeabi_fdiv
    fis210x.o(i.FisImu_read_gyro_xyz) refers to f2d.o(.text) for __aeabi_f2d
    fis210x.o(i.FisImu_read_gyro_xyz) refers to printfa.o(i.__0printf) for __2printf
    fis210x.o(i.FisImu_read_gyro_xyz) refers to fis210x.o(.data) for gyro_lsb_div
    fis210x.o(i.FisImu_read_rawsample) refers to fis210x.o(i.FisImu_read_reg) for FisImu_read_reg
    fis210x.o(i.FisImu_read_reg) refers to qst_sw_i2c.o(i.qst_sw_readreg) for qst_sw_readreg
    fis210x.o(i.FisImu_read_xyz) refers to fis210x.o(i.FisImu_read_reg) for FisImu_read_reg
    fis210x.o(i.FisImu_read_xyz) refers to ffltui.o(.text) for __aeabi_ui2f
    fis210x.o(i.FisImu_read_xyz) refers to fflti.o(.text) for __aeabi_i2f
    fis210x.o(i.FisImu_read_xyz) refers to fmul.o(.text) for __aeabi_fmul
    fis210x.o(i.FisImu_read_xyz) refers to fdiv.o(.text) for __aeabi_fdiv
    fis210x.o(i.FisImu_read_xyz) refers to fis210x.o(.data) for acc_lsb_div
    fis210x.o(i.FisImu_read_xyz) refers to fis210x.o(.bss) for imu_map
    fis210x.o(i.FisImu_read_xyz_raw) refers to fis210x.o(i.FisImu_read_reg) for FisImu_read_reg
    fis210x.o(i.FisImu_set_layout) refers to fis210x.o(.bss) for imu_map
    fis210x.o(i.FisImu_write_reg) refers to qst_sw_i2c.o(i.qst_sw_writereg) for qst_sw_writereg
    fis210x.o(i.FisImu_write_regs) refers to qst_sw_i2c.o(i.qst_sw_writeregs) for qst_sw_writeregs
    fis210x.o(i.applyScaleFactor) refers to fflti.o(.text) for __aeabi_i2f
    fis210x.o(i.applyScaleFactor) refers to fmul.o(.text) for __aeabi_fmul
    fis210x.o(i.writeCalibrationVectorBuffer) refers to fflti.o(.text) for __aeabi_i2f
    fis210x.o(i.writeCalibrationVectorBuffer) refers to fmul.o(.text) for __aeabi_fmul
    fis210x.o(i.writeCalibrationVectorBuffer) refers to roundf.o(i.roundf) for roundf
    fis210x.o(i.writeCalibrationVectorBuffer) refers to ffixi.o(.text) for __aeabi_f2iz
    fis210x.o(i.writeCalibrationVectorBuffer) refers to fis210x.o(i.FisImu_write_regs) for FisImu_write_regs
    qst_sw_i2c.o(i.i2c_Ack) refers to qst_sw_i2c.o(i.delay_us) for delay_us
    qst_sw_i2c.o(i.i2c_NAck) refers to qst_sw_i2c.o(i.delay_us) for delay_us
    qst_sw_i2c.o(i.i2c_ReadByte) refers to qst_sw_i2c.o(i.delay_us) for delay_us
    qst_sw_i2c.o(i.i2c_ReadByte) refers to qst_sw_i2c.o(i.i2c_NAck) for i2c_NAck
    qst_sw_i2c.o(i.i2c_ReadByte) refers to qst_sw_i2c.o(i.i2c_Ack) for i2c_Ack
    qst_sw_i2c.o(i.i2c_SendByte) refers to qst_sw_i2c.o(i.delay_us) for delay_us
    qst_sw_i2c.o(i.i2c_Start) refers to qst_sw_i2c.o(i.delay_us) for delay_us
    qst_sw_i2c.o(i.i2c_Stop) refers to qst_sw_i2c.o(i.delay_us) for delay_us
    qst_sw_i2c.o(i.i2c_WaitAck) refers to qst_sw_i2c.o(i.delay_us) for delay_us
    qst_sw_i2c.o(i.i2c_sw_gpio_config) refers to stm32f10x_rcc.o(i.RCC_APB2PeriphClockCmd) for RCC_APB2PeriphClockCmd
    qst_sw_i2c.o(i.i2c_sw_gpio_config) refers to stm32f10x_gpio.o(i.GPIO_Init) for GPIO_Init
    qst_sw_i2c.o(i.i2c_sw_gpio_config) refers to qst_sw_i2c.o(i.i2c_Stop) for i2c_Stop
    qst_sw_i2c.o(i.jhm1200_iic_read) refers to qst_sw_i2c.o(i.i2c_Start) for i2c_Start
    qst_sw_i2c.o(i.jhm1200_iic_read) refers to qst_sw_i2c.o(i.i2c_SendByte) for i2c_SendByte
    qst_sw_i2c.o(i.jhm1200_iic_read) refers to qst_sw_i2c.o(i.i2c_WaitAck) for i2c_WaitAck
    qst_sw_i2c.o(i.jhm1200_iic_read) refers to qst_sw_i2c.o(i.i2c_ReadByte) for i2c_ReadByte
    qst_sw_i2c.o(i.jhm1200_iic_read) refers to qst_sw_i2c.o(i.i2c_Stop) for i2c_Stop
    qst_sw_i2c.o(i.jhm1200_iic_write) refers to qst_sw_i2c.o(i.i2c_Start) for i2c_Start
    qst_sw_i2c.o(i.jhm1200_iic_write) refers to qst_sw_i2c.o(i.i2c_SendByte) for i2c_SendByte
    qst_sw_i2c.o(i.jhm1200_iic_write) refers to qst_sw_i2c.o(i.i2c_WaitAck) for i2c_WaitAck
    qst_sw_i2c.o(i.jhm1200_iic_write) refers to qst_sw_i2c.o(i.i2c_Stop) for i2c_Stop
    qst_sw_i2c.o(i.qst_sw_readreg) refers to qst_sw_i2c.o(i.i2c_Start) for i2c_Start
    qst_sw_i2c.o(i.qst_sw_readreg) refers to qst_sw_i2c.o(i.i2c_SendByte) for i2c_SendByte
    qst_sw_i2c.o(i.qst_sw_readreg) refers to qst_sw_i2c.o(i.i2c_WaitAck) for i2c_WaitAck
    qst_sw_i2c.o(i.qst_sw_readreg) refers to qst_sw_i2c.o(i.i2c_ReadByte) for i2c_ReadByte
    qst_sw_i2c.o(i.qst_sw_readreg) refers to qst_sw_i2c.o(i.i2c_Stop) for i2c_Stop
    qst_sw_i2c.o(i.qst_sw_writereg) refers to qst_sw_i2c.o(i.i2c_Start) for i2c_Start
    qst_sw_i2c.o(i.qst_sw_writereg) refers to qst_sw_i2c.o(i.i2c_SendByte) for i2c_SendByte
    qst_sw_i2c.o(i.qst_sw_writereg) refers to qst_sw_i2c.o(i.i2c_WaitAck) for i2c_WaitAck
    qst_sw_i2c.o(i.qst_sw_writereg) refers to qst_sw_i2c.o(i.i2c_Stop) for i2c_Stop
    qst_sw_i2c.o(i.qst_sw_writeregs) refers to qst_sw_i2c.o(i.i2c_Start) for i2c_Start
    qst_sw_i2c.o(i.qst_sw_writeregs) refers to qst_sw_i2c.o(i.i2c_SendByte) for i2c_SendByte
    qst_sw_i2c.o(i.qst_sw_writeregs) refers to qst_sw_i2c.o(i.i2c_WaitAck) for i2c_WaitAck
    qst_sw_i2c.o(i.qst_sw_writeregs) refers to qst_sw_i2c.o(i.i2c_Stop) for i2c_Stop
    api_711_internal.o(i.BSP_IIC_Read) refers to qst_sw_i2c.o(i.jhm1200_iic_read) for jhm1200_iic_read
    api_711_internal.o(i.BSP_IIC_Write) refers to qst_sw_i2c.o(i.jhm1200_iic_write) for jhm1200_iic_write
    api_711_internal.o(i.JHM1200_IsBusy) refers to api_711_internal.o(i.BSP_IIC_Read) for BSP_IIC_Read
    api_711_internal.o(i.JHM1200_IsBusy) refers to api_711_internal.o(.data) for Device_Address
    api_711_internal.o(i.JHM1200_get_cal) refers to api_711_internal.o(i.BSP_IIC_Write) for BSP_IIC_Write
    api_711_internal.o(i.JHM1200_get_cal) refers to api_711_internal.o(i.DelayMs) for DelayMs
    api_711_internal.o(i.JHM1200_get_cal) refers to api_711_internal.o(i.JHM1200_IsBusy) for JHM1200_IsBusy
    api_711_internal.o(i.JHM1200_get_cal) refers to api_711_internal.o(i.BSP_IIC_Read) for BSP_IIC_Read
    api_711_internal.o(i.JHM1200_get_cal) refers to dfltui.o(.text) for __aeabi_ui2d
    api_711_internal.o(i.JHM1200_get_cal) refers to ddiv.o(.text) for __aeabi_ddiv
    api_711_internal.o(i.JHM1200_get_cal) refers to dmul.o(.text) for __aeabi_dmul
    api_711_internal.o(i.JHM1200_get_cal) refers to dadd.o(.text) for __aeabi_dadd
    api_711_internal.o(i.JHM1200_get_cal) refers to printfa.o(i.__0printf) for __2printf
    api_711_internal.o(i.JHM1200_get_cal) refers to dfixi.o(.text) for __aeabi_d2iz
    api_711_internal.o(i.JHM1200_get_cal) refers to api_711_internal.o(.data) for Device_Address
    virtual_iic.o(i.Check_ACK) refers to stm32f10x_gpio.o(i.GPIO_SetBits) for GPIO_SetBits
    virtual_iic.o(i.Check_ACK) refers to stm32f10x_gpio.o(i.GPIO_ReadInputDataBit) for GPIO_ReadInputDataBit
    virtual_iic.o(i.Check_ACK) refers to virtual_iic.o(i.DelayUs) for DelayUs
    virtual_iic.o(i.Check_ACK) refers to stm32f10x_gpio.o(i.GPIO_ResetBits) for GPIO_ResetBits
    virtual_iic.o(i.ReceiveByte) refers to virtual_iic.o(i.DelayUs) for DelayUs
    virtual_iic.o(i.ReceiveByte) refers to stm32f10x_gpio.o(i.GPIO_SetBits) for GPIO_SetBits
    virtual_iic.o(i.ReceiveByte) refers to stm32f10x_gpio.o(i.GPIO_ReadInputDataBit) for GPIO_ReadInputDataBit
    virtual_iic.o(i.ReceiveByte) refers to stm32f10x_gpio.o(i.GPIO_ResetBits) for GPIO_ResetBits
    virtual_iic.o(i.SendByte) refers to stm32f10x_gpio.o(i.GPIO_SetBits) for GPIO_SetBits
    virtual_iic.o(i.SendByte) refers to stm32f10x_gpio.o(i.GPIO_ResetBits) for GPIO_ResetBits
    virtual_iic.o(i.SendByte) refers to virtual_iic.o(i.DelayUs) for DelayUs
    virtual_iic.o(i.Send_ACK) refers to stm32f10x_gpio.o(i.GPIO_ResetBits) for GPIO_ResetBits
    virtual_iic.o(i.Send_ACK) refers to virtual_iic.o(i.DelayUs) for DelayUs
    virtual_iic.o(i.Send_ACK) refers to stm32f10x_gpio.o(i.GPIO_SetBits) for GPIO_SetBits
    virtual_iic.o(i.Send_NOACK) refers to stm32f10x_gpio.o(i.GPIO_SetBits) for GPIO_SetBits
    virtual_iic.o(i.Send_NOACK) refers to virtual_iic.o(i.DelayUs) for DelayUs
    virtual_iic.o(i.Send_NOACK) refers to stm32f10x_gpio.o(i.GPIO_ResetBits) for GPIO_ResetBits
    virtual_iic.o(i.Start) refers to stm32f10x_gpio.o(i.GPIO_SetBits) for GPIO_SetBits
    virtual_iic.o(i.Start) refers to virtual_iic.o(i.DelayUs) for DelayUs
    virtual_iic.o(i.Start) refers to stm32f10x_gpio.o(i.GPIO_ResetBits) for GPIO_ResetBits
    virtual_iic.o(i.Stop) refers to stm32f10x_gpio.o(i.GPIO_ResetBits) for GPIO_ResetBits
    virtual_iic.o(i.Stop) refers to virtual_iic.o(i.DelayUs) for DelayUs
    virtual_iic.o(i.Stop) refers to stm32f10x_gpio.o(i.GPIO_SetBits) for GPIO_SetBits
    virtual_iic.o(i.Virtual_I2C_Init) refers to stm32f10x_rcc.o(i.RCC_APB2PeriphClockCmd) for RCC_APB2PeriphClockCmd
    virtual_iic.o(i.Virtual_I2C_Init) refers to stm32f10x_gpio.o(i.GPIO_Init) for GPIO_Init
    virtual_iic.o(i.Virtual_I2C_Init) refers to stm32f10x_gpio.o(i.GPIO_SetBits) for GPIO_SetBits
    virtual_iic.o(i.Virtual_I2C_Master_Receive) refers to virtual_iic.o(i.Start) for Start
    virtual_iic.o(i.Virtual_I2C_Master_Receive) refers to virtual_iic.o(i.DelayUs) for DelayUs
    virtual_iic.o(i.Virtual_I2C_Master_Receive) refers to virtual_iic.o(i.SendByte) for SendByte
    virtual_iic.o(i.Virtual_I2C_Master_Receive) refers to virtual_iic.o(i.Check_ACK) for Check_ACK
    virtual_iic.o(i.Virtual_I2C_Master_Receive) refers to virtual_iic.o(i.Stop) for Stop
    virtual_iic.o(i.Virtual_I2C_Master_Receive) refers to virtual_iic.o(i.ReceiveByte) for ReceiveByte
    virtual_iic.o(i.Virtual_I2C_Master_Receive) refers to virtual_iic.o(i.Send_ACK) for Send_ACK
    virtual_iic.o(i.Virtual_I2C_Master_Receive) refers to virtual_iic.o(i.Send_NOACK) for Send_NOACK
    virtual_iic.o(i.Virtual_I2C_Master_Receive) refers to virtual_iic.o(.bss) for vi2c1
    virtual_iic.o(i.Virtual_I2C_Master_Transmit) refers to virtual_iic.o(i.Start) for Start
    virtual_iic.o(i.Virtual_I2C_Master_Transmit) refers to virtual_iic.o(i.DelayUs) for DelayUs
    virtual_iic.o(i.Virtual_I2C_Master_Transmit) refers to virtual_iic.o(i.SendByte) for SendByte
    virtual_iic.o(i.Virtual_I2C_Master_Transmit) refers to virtual_iic.o(i.Check_ACK) for Check_ACK
    virtual_iic.o(i.Virtual_I2C_Master_Transmit) refers to virtual_iic.o(i.Stop) for Stop
    virtual_iic.o(i.Virtual_I2C_Master_Transmit) refers to virtual_iic.o(.bss) for vi2c1
    qmc6308.o(i.qmc6308_enable) refers to qmc6308.o(i.qmc6308_write_reg) for qmc6308_write_reg
    qmc6308.o(i.qmc6308_enable) refers to qmc6308.o(i.qmc6308_set_output_data_rate) for qmc6308_set_output_data_rate
    qmc6308.o(i.qmc6308_enable) refers to qmc6308.o(i.qmc6308_set_mode) for qmc6308_set_mode
    qmc6308.o(i.qmc6308_get_chipid) refers to qmc6308.o(i.qmc6308_read_block) for qmc6308_read_block
    qmc6308.o(i.qmc6308_get_chipid) refers to printfa.o(i.__0printf) for __2printf
    qmc6308.o(i.qmc6308_get_chipid) refers to qmc6308.o(.constdata) for __func__
    qmc6308.o(i.qmc6308_get_chipid) refers to qmc6308.o(.data) for sensor_mask
    qmc6308.o(i.qmc6308_init) refers to qmc6308.o(i.qmc6308_get_chipid) for qmc6308_get_chipid
    qmc6308.o(i.qmc6308_init) refers to qmc6308.o(i.qmc6308_set_layout) for qmc6308_set_layout
    qmc6308.o(i.qmc6308_init) refers to qmc6308.o(i.qmc6308_enable) for qmc6308_enable
    qmc6308.o(i.qmc6308_init) refers to qmc6308.o(i.qmc6308_read_block) for qmc6308_read_block
    qmc6308.o(i.qmc6308_init) refers to printfa.o(i.__0printf) for __2printf
    qmc6308.o(i.qmc6308_read_block) refers to qst_sw_i2c.o(i.qst_sw_readreg) for qst_sw_readreg
    qmc6308.o(i.qmc6308_read_mag_xyz) refers to qmc6308.o(i.qmc6308_read_block) for qmc6308_read_block
    qmc6308.o(i.qmc6308_read_mag_xyz) refers to qmc6308.o(.data) for g_map
    qmc6308.o(i.qmc6308_set_layout) refers to qmc6308.o(.data) for g_map
    qmc6308.o(i.qmc6308_set_mode) refers to qmc6308.o(i.qmc6308_read_block) for qmc6308_read_block
    qmc6308.o(i.qmc6308_set_mode) refers to printfa.o(i.__0printf) for __2printf
    qmc6308.o(i.qmc6308_set_mode) refers to qmc6308.o(i.qmc6308_write_reg) for qmc6308_write_reg
    qmc6308.o(i.qmc6308_set_output_data_rate) refers to qmc6308.o(i.qmc6308_read_block) for qmc6308_read_block
    qmc6308.o(i.qmc6308_set_output_data_rate) refers to printfa.o(i.__0printf) for __2printf
    qmc6308.o(i.qmc6308_set_output_data_rate) refers to qmc6308.o(i.qmc6308_write_reg) for qmc6308_write_reg
    qmc6308.o(i.qmc6308_write_reg) refers to qst_sw_i2c.o(i.qst_sw_writereg) for qst_sw_writereg
    fastmath.o(i._Z10FastSinCosfPfS_) refers to fmul.o(.text) for __aeabi_fmul
    fastmath.o(i._Z10FastSinCosfPfS_) refers to ffixi.o(.text) for __aeabi_f2iz
    fastmath.o(i._Z10FastSinCosfPfS_) refers to cfcmple.o(.text) for __aeabi_cfcmple
    fastmath.o(i._Z10FastSinCosfPfS_) refers to fflti.o(.text) for __aeabi_i2f
    fastmath.o(i._Z10FastSinCosfPfS_) refers to fadd.o(.text) for __aeabi_frsub
    fastmath.o(i._Z10FastSinCosfPfS_) refers to ffixui.o(.text) for __aeabi_f2uiz
    fastmath.o(i._Z10FastSinCosfPfS_) refers to ffltui.o(.text) for __aeabi_ui2f
    fastmath.o(i._Z10FastSinCosfPfS_) refers to fastmath.o(.constdata) for sinTable
    fastmath.o(i._Z4ModffPf) refers to cfcmple.o(.text) for __aeabi_cfcmple
    fastmath.o(i._Z4ModffPf) refers to cfrcmple.o(.text) for __aeabi_cfrcmple
    fastmath.o(i._Z4ModffPf) refers to ffixi.o(.text) for __aeabi_f2iz
    fastmath.o(i._Z4ModffPf) refers to fflti.o(.text) for __aeabi_i2f
    fastmath.o(i._Z4ModffPf) refers to fadd.o(.text) for __aeabi_fsub
    fastmath.o(i._Z6FastLnf) refers to cfrcmple.o(.text) for __aeabi_cfrcmple
    fastmath.o(i._Z6FastLnf) refers to fadd.o(.text) for __aeabi_fsub
    fastmath.o(i._Z6FastLnf) refers to fmul.o(.text) for __aeabi_fmul
    fastmath.o(i._Z6FastLnf) refers to fflti.o(.text) for __aeabi_i2f
    fastmath.o(i._Z6FastLnf) refers to fdiv.o(.text) for __aeabi_fdiv
    fastmath.o(i._Z7FastCosf) refers to fmul.o(.text) for __aeabi_fmul
    fastmath.o(i._Z7FastCosf) refers to fadd.o(.text) for __aeabi_fadd
    fastmath.o(i._Z7FastCosf) refers to ffixi.o(.text) for __aeabi_f2iz
    fastmath.o(i._Z7FastCosf) refers to cfcmple.o(.text) for __aeabi_cfcmple
    fastmath.o(i._Z7FastCosf) refers to fflti.o(.text) for __aeabi_i2f
    fastmath.o(i._Z7FastCosf) refers to ffixui.o(.text) for __aeabi_f2uiz
    fastmath.o(i._Z7FastCosf) refers to ffltui.o(.text) for __aeabi_ui2f
    fastmath.o(i._Z7FastCosf) refers to fastmath.o(.constdata) for sinTable
    fastmath.o(i._Z7FastPowff) refers to cfcmple.o(.text) for __aeabi_cfcmpeq
    fastmath.o(i._Z7FastPowff) refers to cfrcmple.o(.text) for __aeabi_cfrcmple
    fastmath.o(i._Z7FastPowff) refers to ffixi.o(.text) for __aeabi_f2iz
    fastmath.o(i._Z7FastPowff) refers to fflti.o(.text) for __aeabi_i2f
    fastmath.o(i._Z7FastPowff) refers to fadd.o(.text) for __aeabi_fsub
    fastmath.o(i._Z7FastPowff) refers to fdiv.o(.text) for __aeabi_fdiv
    fastmath.o(i._Z7FastPowff) refers to fmul.o(.text) for __aeabi_fmul
    fastmath.o(i._Z7FastPowff) refers to fastmath.o(i._Z4ModffPf) for Modf(float, float*)
    fastmath.o(i._Z7FastPowff) refers to fastmath.o(.constdata) for a1l
    fastmath.o(i._Z7FastSinf) refers to fmul.o(.text) for __aeabi_fmul
    fastmath.o(i._Z7FastSinf) refers to ffixi.o(.text) for __aeabi_f2iz
    fastmath.o(i._Z7FastSinf) refers to cfcmple.o(.text) for __aeabi_cfcmple
    fastmath.o(i._Z7FastSinf) refers to fflti.o(.text) for __aeabi_i2f
    fastmath.o(i._Z7FastSinf) refers to fadd.o(.text) for __aeabi_frsub
    fastmath.o(i._Z7FastSinf) refers to ffixui.o(.text) for __aeabi_f2uiz
    fastmath.o(i._Z7FastSinf) refers to ffltui.o(.text) for __aeabi_ui2f
    fastmath.o(i._Z7FastSinf) refers to fastmath.o(.constdata) for sinTable
    fastmath.o(i._Z7FastTanf) refers to cfrcmple.o(.text) for __aeabi_cfrcmple
    fastmath.o(i._Z7FastTanf) refers to cfcmple.o(.text) for __aeabi_cfcmple
    fastmath.o(i._Z7FastTanf) refers to ffixi.o(.text) for __aeabi_f2iz
    fastmath.o(i._Z7FastTanf) refers to fflti.o(.text) for __aeabi_i2f
    fastmath.o(i._Z7FastTanf) refers to fadd.o(.text) for __aeabi_fsub
    fastmath.o(i._Z7FastTanf) refers to fmul.o(.text) for __aeabi_fmul
    fastmath.o(i._Z7FastTanf) refers to fdiv.o(.text) for __aeabi_fdiv
    fastmath.o(i._Z8FastAsinf) refers to cfcmple.o(.text) for __aeabi_cfcmple
    fastmath.o(i._Z8FastAsinf) refers to cfrcmple.o(.text) for __aeabi_cfrcmple
    fastmath.o(i._Z8FastAsinf) refers to fadd.o(.text) for __aeabi_fsub
    fastmath.o(i._Z8FastAsinf) refers to fmul.o(.text) for __aeabi_fmul
    fastmath.o(i._Z8FastAsinf) refers to fastmath.o(i._Z8FastSqrtf) for FastSqrt(float)
    fastmath.o(i._Z8FastAsinf) refers to fdiv.o(.text) for __aeabi_fdiv
    fastmath.o(i._Z8FastSqrtf) refers to fastmath.o(i._Z9FastSqrtIf) for FastSqrtI(float)
    fastmath.o(i._Z8FastSqrtf) refers to fmul.o(.text) for __aeabi_fmul
    fastmath.o(i._Z9FastAtan2ff) refers to cfcmple.o(.text) for __aeabi_cfcmpeq
    fastmath.o(i._Z9FastAtan2ff) refers to cfrcmple.o(.text) for __aeabi_cfrcmple
    fastmath.o(i._Z9FastAtan2ff) refers to fdiv.o(.text) for __aeabi_fdiv
    fastmath.o(i._Z9FastAtan2ff) refers to fmul.o(.text) for __aeabi_fmul
    fastmath.o(i._Z9FastAtan2ff) refers to fadd.o(.text) for __aeabi_fsub
    fastmath.o(i._Z9FastAtan2ff) refers to fastmath.o(.constdata) for a
    fastmath.o(i._Z9FastSqrtIf) refers to fmul.o(.text) for __aeabi_fmul
    fastmath.o(i._Z9FastSqrtIf) refers to fadd.o(.text) for __aeabi_frsub
    fastmath.o(.ARM.exidx) refers to fastmath.o(i._Z4ModffPf) for i._Z4ModffPf
    fastmath.o(.ARM.exidx) refers to fastmath.o(i._Z7FastPowff) for i._Z7FastPowff
    fastmath.o(.ARM.exidx) refers to fastmath.o(i._Z7FastTanf) for i._Z7FastTanf
    fastmath.o(.ARM.exidx) refers to fastmath.o(i._Z6FastLnf) for i._Z6FastLnf
    fastmath.o(.ARM.exidx) refers to fastmath.o(i._Z9FastSqrtIf) for i._Z9FastSqrtIf
    fastmath.o(.ARM.exidx) refers to fastmath.o(i._Z8FastSqrtf) for i._Z8FastSqrtf
    fastmath.o(.ARM.exidx) refers to fastmath.o(i._Z8FastAsinf) for i._Z8FastAsinf
    fastmath.o(.ARM.exidx) refers to fastmath.o(i._Z9FastAtan2ff) for i._Z9FastAtan2ff
    fastmath.o(.ARM.exidx) refers to fastmath.o(i._Z10FastSinCosfPfS_) for i._Z10FastSinCosfPfS_
    fastmath.o(.ARM.exidx) refers to fastmath.o(i._Z7FastSinf) for i._Z7FastSinf
    fastmath.o(.ARM.exidx) refers to fastmath.o(i._Z7FastCosf) for i._Z7FastCosf
    imualgo.o(i._Z20qst_algo_gravity_accPf) refers to fmul.o(.text) for __aeabi_fmul
    imualgo.o(i._Z20qst_algo_gravity_accPf) refers to fadd.o(.text) for __aeabi_fadd
    imualgo.o(i._Z20qst_algo_gravity_accPf) refers to imualgo.o(.data) for gravity_acc_init
    imualgo.o(i._Z20qst_algo_gravity_accPf) refers to imualgo.o(.bss) for gravity
    imualgo.o(i.qst_algo_imu_angle) refers to fmul.o(.text) for __aeabi_fmul
    imualgo.o(i.qst_algo_imu_angle) refers to fadd.o(.text) for __aeabi_fadd
    imualgo.o(i.qst_algo_imu_angle) refers to cfrcmple.o(.text) for __aeabi_cfrcmple
    imualgo.o(i.qst_algo_imu_angle) refers to cfcmple.o(.text) for __aeabi_cfcmple
    imualgo.o(i.qst_algo_imu_angle) refers to fastmath.o(i._Z8FastAsinf) for FastAsin(float)
    imualgo.o(i.qst_algo_imu_angle) refers to fastmath.o(i._Z9FastAtan2ff) for FastAtan2(float, float)
    imualgo.o(i.qst_algo_imu_angle) refers to ffixi.o(.text) for __aeabi_f2iz
    imualgo.o(i.qst_algo_imu_angle) refers to imualgo.o(.bss) for qstimu
    imualgo.o(i.qst_algo_imu_angle2) refers to fmul.o(.text) for __aeabi_fmul
    imualgo.o(i.qst_algo_imu_angle2) refers to fadd.o(.text) for __aeabi_fadd
    imualgo.o(i.qst_algo_imu_angle2) refers to f2d.o(.text) for __aeabi_f2d
    imualgo.o(i.qst_algo_imu_angle2) refers to cdrcmple.o(.text) for __aeabi_cdrcmple
    imualgo.o(i.qst_algo_imu_angle2) refers to cdcmple.o(.text) for __aeabi_cdcmple
    imualgo.o(i.qst_algo_imu_angle2) refers to asinf.o(i.asinf) for asinf
    imualgo.o(i.qst_algo_imu_angle2) refers to imualgo.o(i._ZSt5atan2ff) for std::atan2(float, float)
    imualgo.o(i.qst_algo_imu_angle2) refers to imualgo.o(.bss) for qstimu
    imualgo.o(i.qst_algo_imu_cali) refers to f2d.o(.text) for __aeabi_f2d
    imualgo.o(i.qst_algo_imu_cali) refers to printfa.o(i.__0printf) for __2printf
    imualgo.o(i.qst_algo_imu_cali) refers to imualgo.o(i._Z7qmemsetPvci) for qmemset(void*, char, int)
    imualgo.o(i.qst_algo_imu_cali) refers to fadd.o(.text) for __aeabi_fadd
    imualgo.o(i.qst_algo_imu_cali) refers to fdiv.o(.text) for __aeabi_fdiv
    imualgo.o(i.qst_algo_imu_cali) refers to fmul.o(.text) for __aeabi_fmul
    imualgo.o(i.qst_algo_imu_cali) refers to imualgo.o(.data) for cali_count
    imualgo.o(i.qst_algo_imu_cali) refers to imualgo.o(.bss) for offset_acc
    imualgo.o(i.qst_algo_imu_cali) refers to sqrtf.o(i.sqrtf) for sqrtf
    imualgo.o(i.qst_algo_imu_data_process) refers to fadd.o(.text) for __aeabi_fadd
    imualgo.o(i.qst_algo_imu_data_process) refers to imualgo.o(i._Z20qst_algo_gravity_accPf) for qst_algo_gravity_acc(float*)
    imualgo.o(i.qst_algo_imu_data_process) refers to cfcmple.o(.text) for __aeabi_cfcmple
    imualgo.o(i.qst_algo_imu_data_process) refers to imualgo.o(.bss) for offset_acc
    imualgo.o(i.qst_algo_imu_data_process) refers to imualgo.o(.data) for gyro_x_thres
    imualgo.o(i.qst_algo_imu_get_offset) refers to imualgo.o(.bss) for offset_acc
    imualgo.o(i.qst_algo_imu_get_offset) refers to imualgo.o(.data) for gyro_x_thres
    imualgo.o(i.qst_algo_imu_init) refers to imualgo.o(i.qst_algo_imu_data_process) for qst_algo_imu_data_process
    imualgo.o(i.qst_algo_imu_init) refers to fmul.o(.text) for __aeabi_fmul
    imualgo.o(i.qst_algo_imu_init) refers to fadd.o(.text) for __aeabi_fadd
    imualgo.o(i.qst_algo_imu_init) refers to fastmath.o(i._Z9FastSqrtIf) for FastSqrtI(float)
    imualgo.o(i.qst_algo_imu_init) refers to fastmath.o(i._Z8FastSqrtf) for FastSqrt(float)
    imualgo.o(i.qst_algo_imu_init) refers to imualgo.o(.constdata) for .constdata
    imualgo.o(i.qst_algo_imu_init) refers to imualgo.o(.bss) for qstimu
    imualgo.o(i.qst_algo_imu_set_offset) refers to imualgo.o(.bss) for offset_acc
    imualgo.o(i.qst_algo_imu_set_offset) refers to imualgo.o(.data) for gyro_x_thres
    imualgo.o(i.qst_algo_imu_update) refers to imualgo.o(i.qst_algo_imu_data_process) for qst_algo_imu_data_process
    imualgo.o(i.qst_algo_imu_update) refers to cfcmple.o(.text) for __aeabi_cfcmpeq
    imualgo.o(i.qst_algo_imu_update) refers to fmul.o(.text) for __aeabi_fmul
    imualgo.o(i.qst_algo_imu_update) refers to fadd.o(.text) for __aeabi_fadd
    imualgo.o(i.qst_algo_imu_update) refers to fastmath.o(i._Z9FastSqrtIf) for FastSqrtI(float)
    imualgo.o(i.qst_algo_imu_update) refers to imualgo.o(.data) for gyro_stable_count
    imualgo.o(i.qst_algo_imu_update) refers to imualgo.o(.bss) for qstimu
    imualgo.o(i.qst_algo_linear_acc) refers to fmul.o(.text) for __aeabi_fmul
    imualgo.o(i.qst_algo_linear_acc) refers to fadd.o(.text) for __aeabi_fadd
    imualgo.o(i.qst_algo_linear_acc) refers to imualgo.o(.data) for linear_acc_init
    imualgo.o(i.qst_algo_linear_acc) refers to imualgo.o(.bss) for gravity
    imualgo.o(.ARM.exidx) refers to imualgo.o(i._Z7qmemsetPvci) for i._Z7qmemsetPvci
    imualgo.o(.ARM.exidx) refers to imualgo.o(i.qst_algo_imu_get_offset) for i.qst_algo_imu_get_offset
    imualgo.o(.ARM.exidx) refers to imualgo.o(i.qst_algo_imu_set_offset) for i.qst_algo_imu_set_offset
    imualgo.o(.ARM.exidx) refers to imualgo.o(i.qst_algo_imu_cali) for i.qst_algo_imu_cali
    imualgo.o(.ARM.exidx) refers to imualgo.o(i.qst_algo_linear_acc) for i.qst_algo_linear_acc
    imualgo.o(.ARM.exidx) refers to imualgo.o(i._Z20qst_algo_gravity_accPf) for i._Z20qst_algo_gravity_accPf
    imualgo.o(.ARM.exidx) refers to imualgo.o(i.qst_algo_imu_data_process) for i.qst_algo_imu_data_process
    imualgo.o(.ARM.exidx) refers to imualgo.o(i.qst_algo_imu_init) for i.qst_algo_imu_init
    imualgo.o(.ARM.exidx) refers to imualgo.o(i.qst_algo_imu_update) for i.qst_algo_imu_update
    imualgo.o(.ARM.exidx) refers to imualgo.o(i.qst_algo_imu_angle) for i.qst_algo_imu_angle
    imualgo.o(.ARM.exidx) refers to imualgo.o(i.qst_algo_imu_angle2) for i.qst_algo_imu_angle2
    ical.o(i.ComputeRR) refers to dflti.o(.text) for __aeabi_i2d
    ical.o(i.ComputeRR) refers to ddiv.o(.text) for __aeabi_ddiv
    ical.o(i.ComputeRR) refers to d2f.o(.text) for __aeabi_d2f
    ical.o(i.ComputeRR) refers to fmul.o(.text) for __aeabi_fmul
    ical.o(i.ComputeRR) refers to fadd.o(.text) for __aeabi_fadd
    ical.o(i.ComputeRR) refers to ical.o(i.mSqrt) for mSqrt
    ical.o(i.ComputeRR) refers to fflti.o(.text) for __aeabi_i2f
    ical.o(i.ComputeRR) refers to fdiv.o(.text) for __aeabi_fdiv
    ical.o(i.ComputeRR) refers to ffixi.o(.text) for __aeabi_f2iz
    ical.o(i.ComputeRR) refers to ical.o(.bss) for icalEns
    ical.o(i.Filter_Acc) refers to fadd.o(.text) for __aeabi_fadd
    ical.o(i.Filter_Acc) refers to fdiv.o(.text) for __aeabi_fdiv
    ical.o(i.Filter_Acc) refers to ical.o(.bss) for Accsum
    ical.o(i.Filter_Mag) refers to fadd.o(.text) for __aeabi_fadd
    ical.o(i.Filter_Mag) refers to fdiv.o(.text) for __aeabi_fdiv
    ical.o(i.Filter_Mag) refers to ical.o(.bss) for Magsum
    ical.o(i.Filter_Ori) refers to cfcmple.o(.text) for __aeabi_cfcmple
    ical.o(i.Filter_Ori) refers to fadd.o(.text) for __aeabi_fsub
    ical.o(i.Filter_Ori) refers to ical.o(i.mFabs) for mFabs
    ical.o(i.Filter_Ori) refers to cfrcmple.o(.text) for __aeabi_cfrcmple
    ical.o(i.Filter_Ori) refers to fmul.o(.text) for __aeabi_fmul
    ical.o(i.Filter_Ori) refers to f2d.o(.text) for __aeabi_f2d
    ical.o(i.Filter_Ori) refers to dadd.o(.text) for __aeabi_drsub
    ical.o(i.Filter_Ori) refers to cdrcmple.o(.text) for __aeabi_cdrcmple
    ical.o(i.Filter_Ori) refers to ical.o(.data) for iHead
    ical.o(i.InvSqrt) refers to fmul.o(.text) for __aeabi_fmul
    ical.o(i.InvSqrt) refers to fadd.o(.text) for __aeabi_frsub
    ical.o(i.InvSqrt) refers to fdiv.o(.text) for __aeabi_fdiv
    ical.o(i.Set_Picth_Roll) refers to ical.o(.data) for ipitch
    ical.o(i.checkAccuracy) refers to ical.o(i.mSabs) for mSabs
    ical.o(i.checkAccuracy) refers to ical.o(i.ical_Init) for ical_Init
    ical.o(i.checkAccuracy) refers to ical.o(.data) for AvgMagR
    ical.o(i.clear_offset) refers to ical.o(.data) for offset_avgN
    ical.o(i.em_JTJ) refers to fmul.o(.text) for __aeabi_fmul
    ical.o(i.em_JTJ) refers to fadd.o(.text) for __aeabi_fadd
    ical.o(i.em_JTJ) refers to ical.o(.bss) for JTJ
    ical.o(i.em_JTJinvJK) refers to fmul.o(.text) for __aeabi_fmul
    ical.o(i.em_JTJinvJK) refers to fadd.o(.text) for __aeabi_fadd
    ical.o(i.em_JTJinvJK) refers to ical.o(.bss) for Jout
    ical.o(i.em_JTK) refers to fadd.o(.text) for __aeabi_fadd
    ical.o(i.em_JTK) refers to ical.o(.bss) for JTK
    ical.o(i.em_average) refers to fflti.o(.text) for __aeabi_i2f
    ical.o(i.em_center) refers to ical.o(i.em_prepare_data) for em_prepare_data
    ical.o(i.em_center) refers to ical.o(i.em_JTJ) for em_JTJ
    ical.o(i.em_center) refers to ical.o(i.em_JTK) for em_JTK
    ical.o(i.em_center) refers to ical.o(i.em_moveData) for em_moveData
    ical.o(i.em_center) refers to ical.o(i.em_invert) for em_invert
    ical.o(i.em_center) refers to ical.o(i.em_JTJinvJK) for em_JTJinvJK
    ical.o(i.em_center) refers to ical.o(i.em_results) for em_results
    ical.o(i.em_center) refers to ical.o(i.em_restore_data) for em_restore_data
    ical.o(i.em_center) refers to ical.o(.bss) for Jout
    ical.o(i.em_invert) refers to cfcmple.o(.text) for __aeabi_cfcmpeq
    ical.o(i.em_invert) refers to fdiv.o(.text) for __aeabi_fdiv
    ical.o(i.em_invert) refers to fmul.o(.text) for __aeabi_fmul
    ical.o(i.em_invert) refers to fadd.o(.text) for __aeabi_frsub
    ical.o(i.em_invert) refers to ical.o(.bss) for ma
    ical.o(i.em_moveData) refers to ical.o(.bss) for JTJ
    ical.o(i.em_prepare_data) refers to ical.o(i.em_average) for em_average
    ical.o(i.em_prepare_data) refers to ical.o(i.em_demean) for em_demean
    ical.o(i.em_prepare_data) refers to fflti.o(.text) for __aeabi_i2f
    ical.o(i.em_prepare_data) refers to fmul.o(.text) for __aeabi_fmul
    ical.o(i.em_prepare_data) refers to fadd.o(.text) for __aeabi_fadd
    ical.o(i.em_prepare_data) refers to ical.o(.bss) for magX
    ical.o(i.em_restore_data) refers to fflti.o(.text) for __aeabi_i2f
    ical.o(i.em_restore_data) refers to fadd.o(.text) for __aeabi_fadd
    ical.o(i.em_restore_data) refers to ffixi.o(.text) for __aeabi_f2iz
    ical.o(i.em_results) refers to fmul.o(.text) for __aeabi_fmul
    ical.o(i.em_results) refers to fdiv.o(.text) for __aeabi_fdiv
    ical.o(i.em_results) refers to fadd.o(.text) for __aeabi_fadd
    ical.o(i.em_results) refers to ical.o(i.mSqrt) for mSqrt
    ical.o(i.getCalibrationFromFile) refers to _scanf_int.o(.text) for _scanf_int
    ical.o(i.getCalibrationFromFile) refers to __0fscanf.o(.text) for __0fscanf
    ical.o(i.get_mag_accuracy) refers to ical.o(.data) for curAccuracy
    ical.o(i.get_mag_bias) refers to dflti.o(.text) for __aeabi_i2d
    ical.o(i.get_mag_bias) refers to ddiv.o(.text) for __aeabi_ddiv
    ical.o(i.get_mag_bias) refers to d2f.o(.text) for __aeabi_d2f
    ical.o(i.get_mag_bias) refers to ical.o(.data) for ofsX
    ical.o(i.ical_Init) refers to ical.o(i.mMemset) for mMemset
    ical.o(i.ical_Init) refers to ical.o(i.clear_offset) for clear_offset
    ical.o(i.ical_Init) refers to ical.o(.bss) for icalMgr
    ical.o(i.ical_Init) refers to ical.o(.data) for IsFirstCalAfterReboot
    ical.o(i.ical_addSample) refers to ical.o(.bss) for icalEns
    ical.o(i.ical_clearFarPoint) refers to fflti.o(.text) for __aeabi_i2f
    ical.o(i.ical_clearFarPoint) refers to ical.o(i.mSqrt) for mSqrt
    ical.o(i.ical_clearFarPoint) refers to cfrcmple.o(.text) for __aeabi_cfrcmple
    ical.o(i.ical_clearFarPoint) refers to cfcmple.o(.text) for __aeabi_cfcmple
    ical.o(i.ical_clearFarPoint) refers to ical.o(i.removePointAt) for removePointAt
    ical.o(i.ical_clearFarPoint) refers to ical.o(.bss) for icalMgr
    ical.o(i.ical_clearFarPoint2) refers to memseta.o(.text) for __aeabi_memclr4
    ical.o(i.ical_clearFarPoint2) refers to fflti.o(.text) for __aeabi_i2f
    ical.o(i.ical_clearFarPoint2) refers to ical.o(i.mSqrt) for mSqrt
    ical.o(i.ical_clearFarPoint2) refers to dflti.o(.text) for __aeabi_i2d
    ical.o(i.ical_clearFarPoint2) refers to dmul.o(.text) for __aeabi_dmul
    ical.o(i.ical_clearFarPoint2) refers to f2d.o(.text) for __aeabi_f2d
    ical.o(i.ical_clearFarPoint2) refers to cdrcmple.o(.text) for __aeabi_cdrcmple
    ical.o(i.ical_clearFarPoint2) refers to ical.o(i.removePointAt) for removePointAt
    ical.o(i.ical_clearFarPoint2) refers to ical.o(.bss) for icalMgr
    ical.o(i.ical_collectDataPoint) refers to ical.o(i.ical_qualify) for ical_qualify
    ical.o(i.ical_collectDataPoint) refers to ical.o(i.ical_addSample) for ical_addSample
    ical.o(i.ical_collectDataPoint) refers to ical.o(.bss) for icalMgr
    ical.o(i.ical_computeCalibration) refers to ical.o(i.em_center) for em_center
    ical.o(i.ical_computeCalibration) refers to ical.o(.bss) for icalMgr
    ical.o(i.ical_qualify) refers to ical.o(i.vec_diff) for vec_diff
    ical.o(i.ical_qualify) refers to ical.o(i.vec_magnitude) for vec_magnitude
    ical.o(i.ical_qualify) refers to dflti.o(.text) for __aeabi_i2d
    ical.o(i.ical_qualify) refers to dmul.o(.text) for __aeabi_dmul
    ical.o(i.ical_qualify) refers to cdcmple.o(.text) for __aeabi_cdcmple
    ical.o(i.ical_qualify) refers to ical.o(i.ical_Init) for ical_Init
    ical.o(i.ical_qualify) refers to ical.o(.bss) for icalMgr
    ical.o(i.ical_shiftData) refers to ical.o(.bss) for icalMgr
    ical.o(i.mFabs) refers to cfcmple.o(.text) for __aeabi_cfcmple
    ical.o(i.mSqrt) refers to fdiv.o(.text) for __aeabi_fdiv
    ical.o(i.mSqrt) refers to fadd.o(.text) for __aeabi_fadd
    ical.o(i.mSqrt) refers to f2d.o(.text) for __aeabi_f2d
    ical.o(i.mSqrt) refers to dmul.o(.text) for __aeabi_dmul
    ical.o(i.mSqrt) refers to d2f.o(.text) for __aeabi_d2f
    ical.o(i.mSqrt) refers to ical.o(i.mFabs) for mFabs
    ical.o(i.mSqrt) refers to cdrcmple.o(.text) for __aeabi_cdrcmple
    ical.o(i.mcal) refers to ical.o(i.getCalibrationFromFile) for getCalibrationFromFile
    ical.o(i.mcal) refers to ical.o(i.ical_Init) for ical_Init
    ical.o(i.mcal) refers to ical.o(.data) for wkCoefficients
    ical.o(i.mcal) refers to ical.o(.bss) for seedCal
    ical.o(i.process) refers to ffixi.o(.text) for __aeabi_f2iz
    ical.o(i.process) refers to fflti.o(.text) for __aeabi_i2f
    ical.o(i.process) refers to ical.o(i.mFabs) for mFabs
    ical.o(i.process) refers to cfcmple.o(.text) for __aeabi_cfcmple
    ical.o(i.process) refers to ical.o(i.ical_collectDataPoint) for ical_collectDataPoint
    ical.o(i.process) refers to ical.o(i.ical_computeCalibration) for ical_computeCalibration
    ical.o(i.process) refers to dflti.o(.text) for __aeabi_i2d
    ical.o(i.process) refers to cdrcmple.o(.text) for __aeabi_cdrcmple
    ical.o(i.process) refers to cdcmple.o(.text) for __aeabi_cdcmple
    ical.o(i.process) refers to ical.o(i.update_offset) for update_offset
    ical.o(i.process) refers to ical.o(i.ical_clearFarPoint) for ical_clearFarPoint
    ical.o(i.process) refers to ical.o(i.mSabs) for mSabs
    ical.o(i.process) refers to memcpya.o(.text) for __aeabi_memcpy
    ical.o(i.process) refers to ical.o(i.storeCalibrationToFile) for storeCalibrationToFile
    ical.o(i.process) refers to ical.o(i.ical_Init) for ical_Init
    ical.o(i.process) refers to ical.o(i.ical_shiftData) for ical_shiftData
    ical.o(i.process) refers to fmul.o(.text) for __aeabi_fmul
    ical.o(i.process) refers to fadd.o(.text) for __aeabi_fadd
    ical.o(i.process) refers to ical.o(i.mSqrt) for mSqrt
    ical.o(i.process) refers to ical.o(i.checkAccuracy) for checkAccuracy
    ical.o(i.process) refers to ical.o(.data) for ofsX
    ical.o(i.process) refers to ical.o(.bss) for icalMgr
    ical.o(i.push2mcal) refers to ical.o(i.Filter_Acc) for Filter_Acc
    ical.o(i.push2mcal) refers to ical.o(i.Filter_Mag) for Filter_Mag
    ical.o(i.push2mcal) refers to fmul.o(.text) for __aeabi_fmul
    ical.o(i.push2mcal) refers to fadd.o(.text) for __aeabi_fadd
    ical.o(i.push2mcal) refers to ical.o(i.InvSqrt) for InvSqrt
    ical.o(i.push2mcal) refers to fdiv.o(.text) for __aeabi_fdiv
    ical.o(i.push2mcal) refers to asinf.o(i.asinf) for asinf
    ical.o(i.push2mcal) refers to sinf.o(i.sinf) for sinf
    ical.o(i.push2mcal) refers to cosf.o(i.cosf) for cosf
    ical.o(i.push2mcal) refers to f2d.o(.text) for __aeabi_f2d
    ical.o(i.push2mcal) refers to atan2.o(i.atan2) for atan2
    ical.o(i.push2mcal) refers to dmul.o(.text) for __aeabi_dmul
    ical.o(i.push2mcal) refers to ddiv.o(.text) for __aeabi_ddiv
    ical.o(i.push2mcal) refers to d2f.o(.text) for __aeabi_d2f
    ical.o(i.push2mcal) refers to cfcmple.o(.text) for __aeabi_cfcmple
    ical.o(i.push2mcal) refers to ical.o(i.Set_Picth_Roll) for Set_Picth_Roll
    ical.o(i.push2mcal) refers to ical.o(i.Filter_Ori) for Filter_Ori
    ical.o(i.push2mcal) refers to ical.o(.data) for iHead
    ical.o(i.removePointAt) refers to ical.o(.bss) for icalMgr
    ical.o(i.storeCalibrationToFile) refers to printfa.o(i.__0fprintf) for __2fprintf
    ical.o(i.update_offset) refers to ical.o(.bss) for offset_buff
    ical.o(i.update_offset) refers to ical.o(.data) for ofsX
    ical.o(i.vec_magnitude) refers to fflti.o(.text) for __aeabi_i2f
    ical.o(i.vec_magnitude) refers to fadd.o(.text) for __aeabi_fadd
    ical.o(i.vec_magnitude) refers to ical.o(i.mSqrt) for mSqrt
    ical.o(i.vec_magnitude) refers to ffixi.o(.text) for __aeabi_f2iz
    ical.o(.data) refers to ical.o(.conststring) for .conststring
    qst_packet.o(i.qst_print_log) refers to printfa.o(i.__0vsprintf) for vsprintf
    qst_packet.o(i.qst_print_log) refers to memseta.o(.text) for __aeabi_memclr4
    qst_packet.o(i.qst_print_log) refers to memcpya.o(.text) for __aeabi_memcpy
    qst_packet.o(i.qst_print_log) refers to qst_packet.o(i.qst_putchar) for qst_putchar
    qst_packet.o(i.qst_putchar) refers to stm32f10x_usart.o(i.USART_SendData) for USART_SendData
    qst_packet.o(i.qst_putchar) refers to stm32f10x_usart.o(i.USART_GetFlagStatus) for USART_GetFlagStatus
    qst_packet.o(i.qst_send_data) refers to memseta.o(.text) for __aeabi_memclr4
    qst_packet.o(i.qst_send_data) refers to qst_packet.o(i.qst_putchar) for qst_putchar
    qst_packet.o(i.qst_send_imu_euler) refers to fmul.o(.text) for __aeabi_fmul
    qst_packet.o(i.qst_send_imu_euler) refers to ffixi.o(.text) for __aeabi_f2iz
    qst_packet.o(i.qst_send_imu_euler) refers to cfrcmple.o(.text) for __aeabi_cfrcmple
    qst_packet.o(i.qst_send_imu_euler) refers to fadd.o(.text) for __aeabi_fsub
    qst_packet.o(i.qst_send_imu_euler) refers to qst_packet.o(i.qst_putchar) for qst_putchar
    qst_packet.o(i.qst_send_imu_euler) refers to qst_packet.o(.bss) for data_to_send
    qst_packet.o(i.qst_send_imu_quat) refers to memseta.o(.text) for __aeabi_memclr4
    qst_packet.o(i.qst_send_imu_quat) refers to qst_packet.o(i.qst_putchar) for qst_putchar
    qst_packet.o(i.qst_send_imu_rawdata) refers to qst_packet.o(i.qst_putchar) for qst_putchar
    qst_packet.o(i.qst_send_imu_rawdata) refers to qst_packet.o(.bss) for data_to_send
    asinf.o(i.__softfp_asinf) refers (Special) to iusefp.o(.text) for __I$use$fp
    asinf.o(i.__softfp_asinf) refers to asinf.o(i.asinf) for asinf
    asinf.o(i.asinf) refers (Special) to iusefp.o(.text) for __I$use$fp
    asinf.o(i.asinf) refers to fadd.o(.text) for __aeabi_frsub
    asinf.o(i.asinf) refers to fscalb.o(.text) for __ARM_scalbnf
    asinf.o(i.asinf) refers to sqrtf.o(i.sqrtf) for sqrtf
    asinf.o(i.asinf) refers to fmul.o(.text) for __aeabi_fmul
    asinf.o(i.asinf) refers to fpclassifyf.o(i.__ARM_fpclassifyf) for __ARM_fpclassifyf
    asinf.o(i.asinf) refers to funder.o(i.__mathlib_flt_underflow) for __mathlib_flt_underflow
    asinf.o(i.asinf) refers to funder.o(i.__mathlib_flt_infnan) for __mathlib_flt_infnan
    asinf.o(i.asinf) refers to errno.o(i.__set_errno) for __set_errno
    asinf.o(i.asinf) refers to funder.o(i.__mathlib_flt_invalid) for __mathlib_flt_invalid
    asinf_x.o(i.____softfp_asinf$lsc) refers (Special) to iusefp.o(.text) for __I$use$fp
    asinf_x.o(i.____softfp_asinf$lsc) refers to asinf_x.o(i.__asinf$lsc) for __asinf$lsc
    asinf_x.o(i.__asinf$lsc) refers (Special) to iusefp.o(.text) for __I$use$fp
    asinf_x.o(i.__asinf$lsc) refers to fadd.o(.text) for __aeabi_frsub
    asinf_x.o(i.__asinf$lsc) refers to fscalb.o(.text) for __ARM_scalbnf
    asinf_x.o(i.__asinf$lsc) refers to sqrtf.o(i.sqrtf) for sqrtf
    asinf_x.o(i.__asinf$lsc) refers to fmul.o(.text) for __aeabi_fmul
    asinf_x.o(i.__asinf$lsc) refers to funder.o(i.__mathlib_flt_infnan) for __mathlib_flt_infnan
    asinf_x.o(i.__asinf$lsc) refers to errno.o(i.__set_errno) for __set_errno
    atan2.o(i.__softfp_atan2) refers (Special) to iusefp.o(.text) for __I$use$fp
    atan2.o(i.__softfp_atan2) refers to atan2.o(i.atan2) for atan2
    atan2.o(i.atan2) refers (Special) to iusefp.o(.text) for __I$use$fp
    atan2.o(i.atan2) refers to dunder.o(i.__mathlib_dbl_infnan2) for __mathlib_dbl_infnan2
    atan2.o(i.atan2) refers to atan.o(i.atan) for atan
    atan2.o(i.atan2) refers to ddiv.o(.text) for __aeabi_ddiv
    atan2.o(i.atan2) refers to dadd.o(.text) for __aeabi_dsub
    atan2.o(i.atan2) refers to qnan.o(.constdata) for __mathlib_zero
    atan2_x.o(i.____softfp_atan2$lsc) refers (Special) to iusefp.o(.text) for __I$use$fp
    atan2_x.o(i.____softfp_atan2$lsc) refers to atan2_x.o(i.__atan2$lsc) for __atan2$lsc
    atan2_x.o(i.__atan2$lsc) refers (Special) to iusefp.o(.text) for __I$use$fp
    atan2_x.o(i.__atan2$lsc) refers to dunder.o(i.__mathlib_dbl_infnan2) for __mathlib_dbl_infnan2
    atan2_x.o(i.__atan2$lsc) refers to atan.o(i.atan) for atan
    atan2_x.o(i.__atan2$lsc) refers to errno.o(i.__set_errno) for __set_errno
    atan2_x.o(i.__atan2$lsc) refers to ddiv.o(.text) for __aeabi_ddiv
    atan2_x.o(i.__atan2$lsc) refers to dadd.o(.text) for __aeabi_dsub
    atan2_x.o(i.__atan2$lsc) refers to qnan.o(.constdata) for __mathlib_zero
    atan2f.o(i.__softfp_atan2f) refers (Special) to iusefp.o(.text) for __I$use$fp
    atan2f.o(i.__softfp_atan2f) refers to atan2f.o(i.atan2f) for atan2f
    atan2f.o(i.atan2f) refers (Special) to iusefp.o(.text) for __I$use$fp
    atan2f.o(i.atan2f) refers to fdiv.o(.text) for __aeabi_fdiv
    atan2f.o(i.atan2f) refers to fpclassifyf.o(i.__ARM_fpclassifyf) for __ARM_fpclassifyf
    atan2f.o(i.atan2f) refers to funder.o(i.__mathlib_flt_underflow) for __mathlib_flt_underflow
    atan2f.o(i.atan2f) refers to fadd.o(.text) for __aeabi_fsub
    atan2f.o(i.atan2f) refers to fmul.o(.text) for __aeabi_fmul
    atan2f.o(i.atan2f) refers to funder.o(i.__mathlib_flt_infnan2) for __mathlib_flt_infnan2
    atan2f_x.o(i.____softfp_atan2f$lsc) refers (Special) to iusefp.o(.text) for __I$use$fp
    atan2f_x.o(i.____softfp_atan2f$lsc) refers to atan2f_x.o(i.__atan2f$lsc) for __atan2f$lsc
    atan2f_x.o(i.__atan2f$lsc) refers (Special) to iusefp.o(.text) for __I$use$fp
    atan2f_x.o(i.__atan2f$lsc) refers to fdiv.o(.text) for __aeabi_fdiv
    atan2f_x.o(i.__atan2f$lsc) refers to fadd.o(.text) for __aeabi_fsub
    atan2f_x.o(i.__atan2f$lsc) refers to fmul.o(.text) for __aeabi_fmul
    atan2f_x.o(i.__atan2f$lsc) refers to funder.o(i.__mathlib_flt_infnan2) for __mathlib_flt_infnan2
    atan2f_x.o(i.__atan2f$lsc) refers to errno.o(i.__set_errno) for __set_errno
    cosf.o(i.__softfp_cosf) refers (Special) to iusefp.o(.text) for __I$use$fp
    cosf.o(i.__softfp_cosf) refers to cosf.o(i.cosf) for cosf
    cosf.o(i.cosf) refers (Special) to iusefp.o(.text) for __I$use$fp
    cosf.o(i.cosf) refers to fmul.o(.text) for __aeabi_fmul
    cosf.o(i.cosf) refers to frnd.o(.text) for _frnd
    cosf.o(i.cosf) refers to ffixi.o(.text) for __aeabi_f2iz
    cosf.o(i.cosf) refers to fadd.o(.text) for __aeabi_frsub
    cosf.o(i.cosf) refers to rredf.o(i.__mathlib_rredf2) for __mathlib_rredf2
    cosf.o(i.cosf) refers to errno.o(i.__set_errno) for __set_errno
    cosf.o(i.cosf) refers to funder.o(i.__mathlib_flt_invalid) for __mathlib_flt_invalid
    cosf.o(i.cosf) refers to funder.o(i.__mathlib_flt_infnan) for __mathlib_flt_infnan
    cosf_x.o(i.____softfp_cosf$lsc) refers (Special) to iusefp.o(.text) for __I$use$fp
    cosf_x.o(i.____softfp_cosf$lsc) refers to cosf_x.o(i.__cosf$lsc) for __cosf$lsc
    cosf_x.o(i.__cosf$lsc) refers (Special) to iusefp.o(.text) for __I$use$fp
    cosf_x.o(i.__cosf$lsc) refers to fmul.o(.text) for __aeabi_fmul
    cosf_x.o(i.__cosf$lsc) refers to frnd.o(.text) for _frnd
    cosf_x.o(i.__cosf$lsc) refers to ffixi.o(.text) for __aeabi_f2iz
    cosf_x.o(i.__cosf$lsc) refers to fadd.o(.text) for __aeabi_frsub
    cosf_x.o(i.__cosf$lsc) refers to rredf.o(i.__mathlib_rredf2) for __mathlib_rredf2
    cosf_x.o(i.__cosf$lsc) refers to errno.o(i.__set_errno) for __set_errno
    cosf_x.o(i.__cosf$lsc) refers to funder.o(i.__mathlib_flt_infnan) for __mathlib_flt_infnan
    pow.o(i.__softfp_pow) refers (Special) to iusefp.o(.text) for __I$use$fp
    pow.o(i.__softfp_pow) refers to pow.o(i.pow) for pow
    pow.o(i.pow) refers (Special) to iusefp.o(.text) for __I$use$fp
    pow.o(i.pow) refers to dunder.o(i.__mathlib_dbl_infnan2) for __mathlib_dbl_infnan2
    pow.o(i.pow) refers to errno.o(i.__set_errno) for __set_errno
    pow.o(i.pow) refers to dunder.o(i.__mathlib_dbl_divzero) for __mathlib_dbl_divzero
    pow.o(i.pow) refers to ddiv.o(.text) for __aeabi_ddiv
    pow.o(i.pow) refers to sqrt.o(i.sqrt) for sqrt
    pow.o(i.pow) refers to dmul.o(.text) for __aeabi_dmul
    pow.o(i.pow) refers to dflti.o(.text) for __aeabi_i2d
    pow.o(i.pow) refers to dunder.o(i.__mathlib_dbl_invalid) for __mathlib_dbl_invalid
    pow.o(i.pow) refers to dunder.o(i.__mathlib_dbl_overflow) for __mathlib_dbl_overflow
    pow.o(i.pow) refers to dunder.o(i.__mathlib_dbl_underflow) for __mathlib_dbl_underflow
    pow.o(i.pow) refers to dadd.o(.text) for __aeabi_dsub
    pow.o(i.pow) refers to dscalb.o(.text) for __ARM_scalbn
    pow.o(i.pow) refers to qnan.o(.constdata) for __mathlib_zero
    pow.o(i.pow) refers to poly.o(i.__kernel_poly) for __kernel_poly
    pow.o(i.pow) refers to cdrcmple.o(.text) for __aeabi_cdrcmple
    pow.o(i.pow) refers to pow.o(.constdata) for .constdata
    pow.o(i.pow) refers to fpclassify.o(i.__ARM_fpclassify) for __ARM_fpclassify
    pow.o(.constdata) refers (Special) to iusefp.o(.text) for __I$use$fp
    pow_x.o(i.____softfp_pow$lsc) refers (Special) to iusefp.o(.text) for __I$use$fp
    pow_x.o(i.____softfp_pow$lsc) refers to pow_x.o(i.__pow$lsc) for __pow$lsc
    pow_x.o(i.__pow$lsc) refers (Special) to iusefp.o(.text) for __I$use$fp
    pow_x.o(i.__pow$lsc) refers to dunder.o(i.__mathlib_dbl_infnan2) for __mathlib_dbl_infnan2
    pow_x.o(i.__pow$lsc) refers to errno.o(i.__set_errno) for __set_errno
    pow_x.o(i.__pow$lsc) refers to ddiv.o(.text) for __aeabi_ddiv
    pow_x.o(i.__pow$lsc) refers to sqrt.o(i.sqrt) for sqrt
    pow_x.o(i.__pow$lsc) refers to dmul.o(.text) for __aeabi_dmul
    pow_x.o(i.__pow$lsc) refers to dflti.o(.text) for __aeabi_i2d
    pow_x.o(i.__pow$lsc) refers to dadd.o(.text) for __aeabi_dsub
    pow_x.o(i.__pow$lsc) refers to dscalb.o(.text) for __ARM_scalbn
    pow_x.o(i.__pow$lsc) refers to qnan.o(.constdata) for __mathlib_zero
    pow_x.o(i.__pow$lsc) refers to poly.o(i.__kernel_poly) for __kernel_poly
    pow_x.o(i.__pow$lsc) refers to cdrcmple.o(.text) for __aeabi_cdrcmple
    pow_x.o(i.__pow$lsc) refers to pow_x.o(.constdata) for .constdata
    pow_x.o(.constdata) refers (Special) to iusefp.o(.text) for __I$use$fp
    sinf.o(i.__softfp_sinf) refers (Special) to iusefp.o(.text) for __I$use$fp
    sinf.o(i.__softfp_sinf) refers to sinf.o(i.sinf) for sinf
    sinf.o(i.sinf) refers (Special) to iusefp.o(.text) for __I$use$fp
    sinf.o(i.sinf) refers to fmul.o(.text) for __aeabi_fmul
    sinf.o(i.sinf) refers to frnd.o(.text) for _frnd
    sinf.o(i.sinf) refers to ffixi.o(.text) for __aeabi_f2iz
    sinf.o(i.sinf) refers to fadd.o(.text) for __aeabi_frsub
    sinf.o(i.sinf) refers to rredf.o(i.__mathlib_rredf2) for __mathlib_rredf2
    sinf.o(i.sinf) refers to fpclassifyf.o(i.__ARM_fpclassifyf) for __ARM_fpclassifyf
    sinf.o(i.sinf) refers to funder.o(i.__mathlib_flt_underflow) for __mathlib_flt_underflow
    sinf.o(i.sinf) refers to errno.o(i.__set_errno) for __set_errno
    sinf.o(i.sinf) refers to funder.o(i.__mathlib_flt_invalid) for __mathlib_flt_invalid
    sinf.o(i.sinf) refers to funder.o(i.__mathlib_flt_infnan) for __mathlib_flt_infnan
    sinf_x.o(i.____softfp_sinf$lsc) refers (Special) to iusefp.o(.text) for __I$use$fp
    sinf_x.o(i.____softfp_sinf$lsc) refers to sinf_x.o(i.__sinf$lsc) for __sinf$lsc
    sinf_x.o(i.__sinf$lsc) refers (Special) to iusefp.o(.text) for __I$use$fp
    sinf_x.o(i.__sinf$lsc) refers to fmul.o(.text) for __aeabi_fmul
    sinf_x.o(i.__sinf$lsc) refers to frnd.o(.text) for _frnd
    sinf_x.o(i.__sinf$lsc) refers to ffixi.o(.text) for __aeabi_f2iz
    sinf_x.o(i.__sinf$lsc) refers to fadd.o(.text) for __aeabi_frsub
    sinf_x.o(i.__sinf$lsc) refers to rredf.o(i.__mathlib_rredf2) for __mathlib_rredf2
    sinf_x.o(i.__sinf$lsc) refers to errno.o(i.__set_errno) for __set_errno
    sinf_x.o(i.__sinf$lsc) refers to funder.o(i.__mathlib_flt_infnan) for __mathlib_flt_infnan
    sqrtf.o(i.__softfp_sqrtf) refers (Special) to iusefp.o(.text) for __I$use$fp
    sqrtf.o(i.__softfp_sqrtf) refers to fsqrt.o(.text) for _fsqrt
    sqrtf.o(i.__softfp_sqrtf) refers to errno.o(i.__set_errno) for __set_errno
    sqrtf.o(i.sqrtf) refers (Special) to iusefp.o(.text) for __I$use$fp
    sqrtf.o(i.sqrtf) refers to fsqrt.o(.text) for _fsqrt
    sqrtf.o(i.sqrtf) refers to errno.o(i.__set_errno) for __set_errno
    sqrtf_x.o(i.____softfp_sqrtf$lsc) refers (Special) to iusefp.o(.text) for __I$use$fp
    sqrtf_x.o(i.____softfp_sqrtf$lsc) refers to errno.o(i.__set_errno) for __set_errno
    sqrtf_x.o(i.____softfp_sqrtf$lsc) refers to fsqrt.o(.text) for _fsqrt
    sqrtf_x.o(i.__sqrtf$lsc) refers (Special) to iusefp.o(.text) for __I$use$fp
    sqrtf_x.o(i.__sqrtf$lsc) refers to errno.o(i.__set_errno) for __set_errno
    sqrtf_x.o(i.__sqrtf$lsc) refers to fsqrt.o(.text) for _fsqrt
    roundf.o(i.roundf) refers (Special) to iusefp.o(.text) for __I$use$fp
    roundf.o(i.roundf) refers to frnd.o(.text) for _frnd
    roundf.o(i.roundf) refers to fadd.o(.text) for __aeabi_fsub
    entry.o(.ARM.Collect$$$$00000000) refers (Special) to entry10a.o(.ARM.Collect$$$$0000000D) for __rt_final_cpp
    entry.o(.ARM.Collect$$$$00000000) refers (Special) to entry11a.o(.ARM.Collect$$$$0000000F) for __rt_final_exit
    entry.o(.ARM.Collect$$$$00000000) refers (Special) to entry7b.o(.ARM.Collect$$$$00000008) for _main_clock
    entry.o(.ARM.Collect$$$$00000000) refers (Special) to entry8b.o(.ARM.Collect$$$$0000000A) for _main_cpp_init
    entry.o(.ARM.Collect$$$$00000000) refers (Special) to entry9a.o(.ARM.Collect$$$$0000000B) for _main_init
    entry.o(.ARM.Collect$$$$00000000) refers (Special) to entry5.o(.ARM.Collect$$$$00000004) for _main_scatterload
    entry.o(.ARM.Collect$$$$00000000) refers (Special) to entry2.o(.ARM.Collect$$$$00000001) for _main_stk
    ldiv.o(.text) refers to uldiv.o(.text) for __aeabi_uldivmod
    printfb.o(i.__0fprintf$bare) refers to printfb.o(i._printf_core) for _printf_core
    printfb.o(i.__0fprintf$bare) refers to bsp_usart.o(i.fputc) for fputc
    printfb.o(i.__0printf$bare) refers to printfb.o(i._printf_core) for _printf_core
    printfb.o(i.__0printf$bare) refers to bsp_usart.o(i.fputc) for fputc
    printfb.o(i.__0printf$bare) refers to stdout.o(.data) for __stdout
    printfb.o(i.__0snprintf$bare) refers to printfb.o(i._printf_core) for _printf_core
    printfb.o(i.__0snprintf$bare) refers to printfb.o(i._snputc) for _snputc
    printfb.o(i.__0sprintf$bare) refers to printfb.o(i._printf_core) for _printf_core
    printfb.o(i.__0sprintf$bare) refers to printfb.o(i._sputc) for _sputc
    printfb.o(i.__0vfprintf$bare) refers to printfb.o(i._printf_core) for _printf_core
    printfb.o(i.__0vfprintf$bare) refers to bsp_usart.o(i.fputc) for fputc
    printfb.o(i.__0vprintf$bare) refers to printfb.o(i._printf_core) for _printf_core
    printfb.o(i.__0vprintf$bare) refers to bsp_usart.o(i.fputc) for fputc
    printfb.o(i.__0vprintf$bare) refers to stdout.o(.data) for __stdout
    printfb.o(i.__0vsnprintf$bare) refers to printfb.o(i._printf_core) for _printf_core
    printfb.o(i.__0vsnprintf$bare) refers to printfb.o(i._snputc) for _snputc
    printfb.o(i.__0vsprintf$bare) refers to printfb.o(i._printf_core) for _printf_core
    printfb.o(i.__0vsprintf$bare) refers to printfb.o(i._sputc) for _sputc
    printf0.o(i.__0fprintf$0) refers to printf0.o(i._printf_core) for _printf_core
    printf0.o(i.__0fprintf$0) refers to bsp_usart.o(i.fputc) for fputc
    printf0.o(i.__0printf$0) refers to printf0.o(i._printf_core) for _printf_core
    printf0.o(i.__0printf$0) refers to bsp_usart.o(i.fputc) for fputc
    printf0.o(i.__0printf$0) refers to stdout.o(.data) for __stdout
    printf0.o(i.__0snprintf$0) refers to printf0.o(i._printf_core) for _printf_core
    printf0.o(i.__0snprintf$0) refers to printf0.o(i._snputc) for _snputc
    printf0.o(i.__0sprintf$0) refers to printf0.o(i._printf_core) for _printf_core
    printf0.o(i.__0sprintf$0) refers to printf0.o(i._sputc) for _sputc
    printf0.o(i.__0vfprintf$0) refers to printf0.o(i._printf_core) for _printf_core
    printf0.o(i.__0vfprintf$0) refers to bsp_usart.o(i.fputc) for fputc
    printf0.o(i.__0vprintf$0) refers to printf0.o(i._printf_core) for _printf_core
    printf0.o(i.__0vprintf$0) refers to bsp_usart.o(i.fputc) for fputc
    printf0.o(i.__0vprintf$0) refers to stdout.o(.data) for __stdout
    printf0.o(i.__0vsnprintf$0) refers to printf0.o(i._printf_core) for _printf_core
    printf0.o(i.__0vsnprintf$0) refers to printf0.o(i._snputc) for _snputc
    printf0.o(i.__0vsprintf$0) refers to printf0.o(i._printf_core) for _printf_core
    printf0.o(i.__0vsprintf$0) refers to printf0.o(i._sputc) for _sputc
    printf1.o(i.__0fprintf$1) refers to printf1.o(i._printf_core) for _printf_core
    printf1.o(i.__0fprintf$1) refers to bsp_usart.o(i.fputc) for fputc
    printf1.o(i.__0printf$1) refers to printf1.o(i._printf_core) for _printf_core
    printf1.o(i.__0printf$1) refers to bsp_usart.o(i.fputc) for fputc
    printf1.o(i.__0printf$1) refers to stdout.o(.data) for __stdout
    printf1.o(i.__0snprintf$1) refers to printf1.o(i._printf_core) for _printf_core
    printf1.o(i.__0snprintf$1) refers to printf1.o(i._snputc) for _snputc
    printf1.o(i.__0sprintf$1) refers to printf1.o(i._printf_core) for _printf_core
    printf1.o(i.__0sprintf$1) refers to printf1.o(i._sputc) for _sputc
    printf1.o(i.__0vfprintf$1) refers to printf1.o(i._printf_core) for _printf_core
    printf1.o(i.__0vfprintf$1) refers to bsp_usart.o(i.fputc) for fputc
    printf1.o(i.__0vprintf$1) refers to printf1.o(i._printf_core) for _printf_core
    printf1.o(i.__0vprintf$1) refers to bsp_usart.o(i.fputc) for fputc
    printf1.o(i.__0vprintf$1) refers to stdout.o(.data) for __stdout
    printf1.o(i.__0vsnprintf$1) refers to printf1.o(i._printf_core) for _printf_core
    printf1.o(i.__0vsnprintf$1) refers to printf1.o(i._snputc) for _snputc
    printf1.o(i.__0vsprintf$1) refers to printf1.o(i._printf_core) for _printf_core
    printf1.o(i.__0vsprintf$1) refers to printf1.o(i._sputc) for _sputc
    printf1.o(i._printf_core) refers to uidiv.o(.text) for __aeabi_uidivmod
    printf2.o(i.__0fprintf$2) refers to printf2.o(i._printf_core) for _printf_core
    printf2.o(i.__0fprintf$2) refers to bsp_usart.o(i.fputc) for fputc
    printf2.o(i.__0printf$2) refers to printf2.o(i._printf_core) for _printf_core
    printf2.o(i.__0printf$2) refers to bsp_usart.o(i.fputc) for fputc
    printf2.o(i.__0printf$2) refers to stdout.o(.data) for __stdout
    printf2.o(i.__0snprintf$2) refers to printf2.o(i._printf_core) for _printf_core
    printf2.o(i.__0snprintf$2) refers to printf2.o(i._snputc) for _snputc
    printf2.o(i.__0sprintf$2) refers to printf2.o(i._printf_core) for _printf_core
    printf2.o(i.__0sprintf$2) refers to printf2.o(i._sputc) for _sputc
    printf2.o(i.__0vfprintf$2) refers to printf2.o(i._printf_core) for _printf_core
    printf2.o(i.__0vfprintf$2) refers to bsp_usart.o(i.fputc) for fputc
    printf2.o(i.__0vprintf$2) refers to printf2.o(i._printf_core) for _printf_core
    printf2.o(i.__0vprintf$2) refers to bsp_usart.o(i.fputc) for fputc
    printf2.o(i.__0vprintf$2) refers to stdout.o(.data) for __stdout
    printf2.o(i.__0vsnprintf$2) refers to printf2.o(i._printf_core) for _printf_core
    printf2.o(i.__0vsnprintf$2) refers to printf2.o(i._snputc) for _snputc
    printf2.o(i.__0vsprintf$2) refers to printf2.o(i._printf_core) for _printf_core
    printf2.o(i.__0vsprintf$2) refers to printf2.o(i._sputc) for _sputc
    printf3.o(i.__0fprintf$3) refers to printf3.o(i._printf_core) for _printf_core
    printf3.o(i.__0fprintf$3) refers to bsp_usart.o(i.fputc) for fputc
    printf3.o(i.__0printf$3) refers to printf3.o(i._printf_core) for _printf_core
    printf3.o(i.__0printf$3) refers to bsp_usart.o(i.fputc) for fputc
    printf3.o(i.__0printf$3) refers to stdout.o(.data) for __stdout
    printf3.o(i.__0snprintf$3) refers to printf3.o(i._printf_core) for _printf_core
    printf3.o(i.__0snprintf$3) refers to printf3.o(i._snputc) for _snputc
    printf3.o(i.__0sprintf$3) refers to printf3.o(i._printf_core) for _printf_core
    printf3.o(i.__0sprintf$3) refers to printf3.o(i._sputc) for _sputc
    printf3.o(i.__0vfprintf$3) refers to printf3.o(i._printf_core) for _printf_core
    printf3.o(i.__0vfprintf$3) refers to bsp_usart.o(i.fputc) for fputc
    printf3.o(i.__0vprintf$3) refers to printf3.o(i._printf_core) for _printf_core
    printf3.o(i.__0vprintf$3) refers to bsp_usart.o(i.fputc) for fputc
    printf3.o(i.__0vprintf$3) refers to stdout.o(.data) for __stdout
    printf3.o(i.__0vsnprintf$3) refers to printf3.o(i._printf_core) for _printf_core
    printf3.o(i.__0vsnprintf$3) refers to printf3.o(i._snputc) for _snputc
    printf3.o(i.__0vsprintf$3) refers to printf3.o(i._printf_core) for _printf_core
    printf3.o(i.__0vsprintf$3) refers to printf3.o(i._sputc) for _sputc
    printf3.o(i._printf_core) refers to uidiv.o(.text) for __aeabi_uidivmod
    printf4.o(i.__0fprintf$4) refers to printf4.o(i._printf_core) for _printf_core
    printf4.o(i.__0fprintf$4) refers to bsp_usart.o(i.fputc) for fputc
    printf4.o(i.__0printf$4) refers to printf4.o(i._printf_core) for _printf_core
    printf4.o(i.__0printf$4) refers to bsp_usart.o(i.fputc) for fputc
    printf4.o(i.__0printf$4) refers to stdout.o(.data) for __stdout
    printf4.o(i.__0snprintf$4) refers to printf4.o(i._printf_core) for _printf_core
    printf4.o(i.__0snprintf$4) refers to printf4.o(i._snputc) for _snputc
    printf4.o(i.__0sprintf$4) refers to printf4.o(i._printf_core) for _printf_core
    printf4.o(i.__0sprintf$4) refers to printf4.o(i._sputc) for _sputc
    printf4.o(i.__0vfprintf$4) refers to printf4.o(i._printf_core) for _printf_core
    printf4.o(i.__0vfprintf$4) refers to bsp_usart.o(i.fputc) for fputc
    printf4.o(i.__0vprintf$4) refers to printf4.o(i._printf_core) for _printf_core
    printf4.o(i.__0vprintf$4) refers to bsp_usart.o(i.fputc) for fputc
    printf4.o(i.__0vprintf$4) refers to stdout.o(.data) for __stdout
    printf4.o(i.__0vsnprintf$4) refers to printf4.o(i._printf_core) for _printf_core
    printf4.o(i.__0vsnprintf$4) refers to printf4.o(i._snputc) for _snputc
    printf4.o(i.__0vsprintf$4) refers to printf4.o(i._printf_core) for _printf_core
    printf4.o(i.__0vsprintf$4) refers to printf4.o(i._sputc) for _sputc
    printf4.o(i._printf_core) refers to uldiv.o(.text) for __aeabi_uldivmod
    printf5.o(i.__0fprintf$5) refers to printf5.o(i._printf_core) for _printf_core
    printf5.o(i.__0fprintf$5) refers to bsp_usart.o(i.fputc) for fputc
    printf5.o(i.__0printf$5) refers to printf5.o(i._printf_core) for _printf_core
    printf5.o(i.__0printf$5) refers to bsp_usart.o(i.fputc) for fputc
    printf5.o(i.__0printf$5) refers to stdout.o(.data) for __stdout
    printf5.o(i.__0snprintf$5) refers to printf5.o(i._printf_core) for _printf_core
    printf5.o(i.__0snprintf$5) refers to printf5.o(i._snputc) for _snputc
    printf5.o(i.__0sprintf$5) refers to printf5.o(i._printf_core) for _printf_core
    printf5.o(i.__0sprintf$5) refers to printf5.o(i._sputc) for _sputc
    printf5.o(i.__0vfprintf$5) refers to printf5.o(i._printf_core) for _printf_core
    printf5.o(i.__0vfprintf$5) refers to bsp_usart.o(i.fputc) for fputc
    printf5.o(i.__0vprintf$5) refers to printf5.o(i._printf_core) for _printf_core
    printf5.o(i.__0vprintf$5) refers to bsp_usart.o(i.fputc) for fputc
    printf5.o(i.__0vprintf$5) refers to stdout.o(.data) for __stdout
    printf5.o(i.__0vsnprintf$5) refers to printf5.o(i._printf_core) for _printf_core
    printf5.o(i.__0vsnprintf$5) refers to printf5.o(i._snputc) for _snputc
    printf5.o(i.__0vsprintf$5) refers to printf5.o(i._printf_core) for _printf_core
    printf5.o(i.__0vsprintf$5) refers to printf5.o(i._sputc) for _sputc
    printf5.o(i._printf_core) refers to uldiv.o(.text) for __aeabi_uldivmod
    printf6.o(i.__0fprintf$6) refers to printf6.o(i._printf_core) for _printf_core
    printf6.o(i.__0fprintf$6) refers to bsp_usart.o(i.fputc) for fputc
    printf6.o(i.__0printf$6) refers to printf6.o(i._printf_core) for _printf_core
    printf6.o(i.__0printf$6) refers to bsp_usart.o(i.fputc) for fputc
    printf6.o(i.__0printf$6) refers to stdout.o(.data) for __stdout
    printf6.o(i.__0snprintf$6) refers to printf6.o(i._printf_core) for _printf_core
    printf6.o(i.__0snprintf$6) refers to printf6.o(i._snputc) for _snputc
    printf6.o(i.__0sprintf$6) refers to printf6.o(i._printf_core) for _printf_core
    printf6.o(i.__0sprintf$6) refers to printf6.o(i._sputc) for _sputc
    printf6.o(i.__0vfprintf$6) refers to printf6.o(i._printf_core) for _printf_core
    printf6.o(i.__0vfprintf$6) refers to bsp_usart.o(i.fputc) for fputc
    printf6.o(i.__0vprintf$6) refers to printf6.o(i._printf_core) for _printf_core
    printf6.o(i.__0vprintf$6) refers to bsp_usart.o(i.fputc) for fputc
    printf6.o(i.__0vprintf$6) refers to stdout.o(.data) for __stdout
    printf6.o(i.__0vsnprintf$6) refers to printf6.o(i._printf_core) for _printf_core
    printf6.o(i.__0vsnprintf$6) refers to printf6.o(i._snputc) for _snputc
    printf6.o(i.__0vsprintf$6) refers to printf6.o(i._printf_core) for _printf_core
    printf6.o(i.__0vsprintf$6) refers to printf6.o(i._sputc) for _sputc
    printf6.o(i._printf_core) refers to printf6.o(i._printf_pre_padding) for _printf_pre_padding
    printf6.o(i._printf_core) refers to uidiv.o(.text) for __aeabi_uidivmod
    printf6.o(i._printf_core) refers to printf6.o(i._printf_post_padding) for _printf_post_padding
    printf7.o(i.__0fprintf$7) refers to printf7.o(i._printf_core) for _printf_core
    printf7.o(i.__0fprintf$7) refers to bsp_usart.o(i.fputc) for fputc
    printf7.o(i.__0printf$7) refers to printf7.o(i._printf_core) for _printf_core
    printf7.o(i.__0printf$7) refers to bsp_usart.o(i.fputc) for fputc
    printf7.o(i.__0printf$7) refers to stdout.o(.data) for __stdout
    printf7.o(i.__0snprintf$7) refers to printf7.o(i._printf_core) for _printf_core
    printf7.o(i.__0snprintf$7) refers to printf7.o(i._snputc) for _snputc
    printf7.o(i.__0sprintf$7) refers to printf7.o(i._printf_core) for _printf_core
    printf7.o(i.__0sprintf$7) refers to printf7.o(i._sputc) for _sputc
    printf7.o(i.__0vfprintf$7) refers to printf7.o(i._printf_core) for _printf_core
    printf7.o(i.__0vfprintf$7) refers to bsp_usart.o(i.fputc) for fputc
    printf7.o(i.__0vprintf$7) refers to printf7.o(i._printf_core) for _printf_core
    printf7.o(i.__0vprintf$7) refers to bsp_usart.o(i.fputc) for fputc
    printf7.o(i.__0vprintf$7) refers to stdout.o(.data) for __stdout
    printf7.o(i.__0vsnprintf$7) refers to printf7.o(i._printf_core) for _printf_core
    printf7.o(i.__0vsnprintf$7) refers to printf7.o(i._snputc) for _snputc
    printf7.o(i.__0vsprintf$7) refers to printf7.o(i._printf_core) for _printf_core
    printf7.o(i.__0vsprintf$7) refers to printf7.o(i._sputc) for _sputc
    printf7.o(i._printf_core) refers to printf7.o(i._printf_pre_padding) for _printf_pre_padding
    printf7.o(i._printf_core) refers to uldiv.o(.text) for __aeabi_uldivmod
    printf7.o(i._printf_core) refers to printf7.o(i._printf_post_padding) for _printf_post_padding
    printf8.o(i.__0fprintf$8) refers to printf8.o(i._printf_core) for _printf_core
    printf8.o(i.__0fprintf$8) refers to bsp_usart.o(i.fputc) for fputc
    printf8.o(i.__0printf$8) refers to printf8.o(i._printf_core) for _printf_core
    printf8.o(i.__0printf$8) refers to bsp_usart.o(i.fputc) for fputc
    printf8.o(i.__0printf$8) refers to stdout.o(.data) for __stdout
    printf8.o(i.__0snprintf$8) refers to printf8.o(i._printf_core) for _printf_core
    printf8.o(i.__0snprintf$8) refers to printf8.o(i._snputc) for _snputc
    printf8.o(i.__0sprintf$8) refers to printf8.o(i._printf_core) for _printf_core
    printf8.o(i.__0sprintf$8) refers to printf8.o(i._sputc) for _sputc
    printf8.o(i.__0vfprintf$8) refers to printf8.o(i._printf_core) for _printf_core
    printf8.o(i.__0vfprintf$8) refers to bsp_usart.o(i.fputc) for fputc
    printf8.o(i.__0vprintf$8) refers to printf8.o(i._printf_core) for _printf_core
    printf8.o(i.__0vprintf$8) refers to bsp_usart.o(i.fputc) for fputc
    printf8.o(i.__0vprintf$8) refers to stdout.o(.data) for __stdout
    printf8.o(i.__0vsnprintf$8) refers to printf8.o(i._printf_core) for _printf_core
    printf8.o(i.__0vsnprintf$8) refers to printf8.o(i._snputc) for _snputc
    printf8.o(i.__0vsprintf$8) refers to printf8.o(i._printf_core) for _printf_core
    printf8.o(i.__0vsprintf$8) refers to printf8.o(i._sputc) for _sputc
    printf8.o(i._printf_core) refers to printf8.o(i._printf_pre_padding) for _printf_pre_padding
    printf8.o(i._printf_core) refers to uldiv.o(.text) for __aeabi_uldivmod
    printf8.o(i._printf_core) refers to printf8.o(i._printf_post_padding) for _printf_post_padding
    printfa.o(i.__0fprintf) refers (Special) to iusefp.o(.text) for __I$use$fp
    printfa.o(i.__0fprintf) refers to printfa.o(i._printf_core) for _printf_core
    printfa.o(i.__0fprintf) refers to bsp_usart.o(i.fputc) for fputc
    printfa.o(i.__0printf) refers (Special) to iusefp.o(.text) for __I$use$fp
    printfa.o(i.__0printf) refers to printfa.o(i._printf_core) for _printf_core
    printfa.o(i.__0printf) refers to bsp_usart.o(i.fputc) for fputc
    printfa.o(i.__0printf) refers to stdout.o(.data) for __stdout
    printfa.o(i.__0snprintf) refers (Special) to iusefp.o(.text) for __I$use$fp
    printfa.o(i.__0snprintf) refers to printfa.o(i._printf_core) for _printf_core
    printfa.o(i.__0snprintf) refers to printfa.o(i._snputc) for _snputc
    printfa.o(i.__0sprintf) refers (Special) to iusefp.o(.text) for __I$use$fp
    printfa.o(i.__0sprintf) refers to printfa.o(i._printf_core) for _printf_core
    printfa.o(i.__0sprintf) refers to printfa.o(i._sputc) for _sputc
    printfa.o(i.__0vfprintf) refers (Special) to iusefp.o(.text) for __I$use$fp
    printfa.o(i.__0vfprintf) refers to printfa.o(i._printf_core) for _printf_core
    printfa.o(i.__0vfprintf) refers to bsp_usart.o(i.fputc) for fputc
    printfa.o(i.__0vprintf) refers (Special) to iusefp.o(.text) for __I$use$fp
    printfa.o(i.__0vprintf) refers to printfa.o(i._printf_core) for _printf_core
    printfa.o(i.__0vprintf) refers to bsp_usart.o(i.fputc) for fputc
    printfa.o(i.__0vprintf) refers to stdout.o(.data) for __stdout
    printfa.o(i.__0vsnprintf) refers (Special) to iusefp.o(.text) for __I$use$fp
    printfa.o(i.__0vsnprintf) refers to printfa.o(i._printf_core) for _printf_core
    printfa.o(i.__0vsnprintf) refers to printfa.o(i._snputc) for _snputc
    printfa.o(i.__0vsprintf) refers (Special) to iusefp.o(.text) for __I$use$fp
    printfa.o(i.__0vsprintf) refers to printfa.o(i._printf_core) for _printf_core
    printfa.o(i.__0vsprintf) refers to printfa.o(i._sputc) for _sputc
    printfa.o(i._fp_digits) refers (Special) to iusefp.o(.text) for __I$use$fp
    printfa.o(i._fp_digits) refers to dmul.o(.text) for __aeabi_dmul
    printfa.o(i._fp_digits) refers to ddiv.o(.text) for __aeabi_ddiv
    printfa.o(i._fp_digits) refers to cdrcmple.o(.text) for __aeabi_cdrcmple
    printfa.o(i._fp_digits) refers to dadd.o(.text) for __aeabi_dadd
    printfa.o(i._fp_digits) refers to dfixul.o(.text) for __aeabi_d2ulz
    printfa.o(i._fp_digits) refers to uldiv.o(.text) for __aeabi_uldivmod
    printfa.o(i._printf_core) refers (Special) to iusefp.o(.text) for __I$use$fp
    printfa.o(i._printf_core) refers to printfa.o(i._printf_pre_padding) for _printf_pre_padding
    printfa.o(i._printf_core) refers to uldiv.o(.text) for __aeabi_uldivmod
    printfa.o(i._printf_core) refers to printfa.o(i._printf_post_padding) for _printf_post_padding
    printfa.o(i._printf_core) refers to printfa.o(i._fp_digits) for _fp_digits
    printfa.o(i._printf_core) refers to uidiv.o(.text) for __aeabi_uidivmod
    printfa.o(i._printf_post_padding) refers (Special) to iusefp.o(.text) for __I$use$fp
    printfa.o(i._printf_pre_padding) refers (Special) to iusefp.o(.text) for __I$use$fp
    printfa.o(i._snputc) refers (Special) to iusefp.o(.text) for __I$use$fp
    printfa.o(i._sputc) refers (Special) to iusefp.o(.text) for __I$use$fp
    __0scanf.o(.text) refers to scanf_char_file.o(.text) for __vfscanf_char_file
    __0scanf.o(.text) refers to stdin.o(.data) for __stdin
    __0fscanf.o(.text) refers to scanf_char_file.o(.text) for __vfscanf_char_file
    _scanf_int.o(.text) refers to _chval.o(.text) for _chval
    fadd.o(.text) refers (Special) to iusefp.o(.text) for __I$use$fp
    fadd.o(.text) refers to fepilogue.o(.text) for _float_epilogue
    fmul.o(.text) refers (Special) to iusefp.o(.text) for __I$use$fp
    fdiv.o(.text) refers (Special) to iusefp.o(.text) for __I$use$fp
    fdiv.o(.text) refers to fepilogue.o(.text) for _float_round
    dadd.o(.text) refers (Special) to iusefp.o(.text) for __I$use$fp
    dadd.o(.text) refers to llshl.o(.text) for __aeabi_llsl
    dadd.o(.text) refers to llsshr.o(.text) for __aeabi_lasr
    dadd.o(.text) refers to depilogue.o(.text) for _double_epilogue
    dmul.o(.text) refers (Special) to iusefp.o(.text) for __I$use$fp
    dmul.o(.text) refers to depilogue.o(.text) for _double_epilogue
    ddiv.o(.text) refers (Special) to iusefp.o(.text) for __I$use$fp
    ddiv.o(.text) refers to depilogue.o(.text) for _double_round
    fflti.o(.text) refers (Special) to iusefp.o(.text) for __I$use$fp
    fflti.o(.text) refers to fepilogue.o(.text) for _float_epilogue
    ffltui.o(.text) refers (Special) to iusefp.o(.text) for __I$use$fp
    ffltui.o(.text) refers to fepilogue.o(.text) for _float_epilogue
    ffltul.o(.text) refers (Special) to iusefp.o(.text) for __I$use$fp
    ffltul.o(.text) refers to fepilogue.o(.text) for _float_epilogue
    dflti.o(.text) refers (Special) to iusefp.o(.text) for __I$use$fp
    dflti.o(.text) refers to depilogue.o(.text) for _double_epilogue
    dfltui.o(.text) refers (Special) to iusefp.o(.text) for __I$use$fp
    dfltui.o(.text) refers to depilogue.o(.text) for _double_epilogue
    ffixi.o(.text) refers (Special) to iusefp.o(.text) for __I$use$fp
    ffixui.o(.text) refers (Special) to iusefp.o(.text) for __I$use$fp
    dfixi.o(.text) refers (Special) to iusefp.o(.text) for __I$use$fp
    dfixi.o(.text) refers to llushr.o(.text) for __aeabi_llsr
    f2d.o(.text) refers (Special) to iusefp.o(.text) for __I$use$fp
    cdcmple.o(.text) refers (Special) to iusefp.o(.text) for __I$use$fp
    cdrcmple.o(.text) refers (Special) to iusefp.o(.text) for __I$use$fp
    d2f.o(.text) refers (Special) to iusefp.o(.text) for __I$use$fp
    d2f.o(.text) refers to fepilogue.o(.text) for _float_round
    cfcmple.o(.text) refers (Special) to iusefp.o(.text) for __I$use$fp
    cfrcmple.o(.text) refers (Special) to iusefp.o(.text) for __I$use$fp
    atan.o(i.__softfp_atan) refers (Special) to iusefp.o(.text) for __I$use$fp
    atan.o(i.__softfp_atan) refers to atan.o(i.atan) for atan
    atan.o(i.atan) refers (Special) to iusefp.o(.text) for __I$use$fp
    atan.o(i.atan) refers to dunder.o(i.__mathlib_dbl_infnan) for __mathlib_dbl_infnan
    atan.o(i.atan) refers to fpclassify.o(i.__ARM_fpclassify) for __ARM_fpclassify
    atan.o(i.atan) refers to dunder.o(i.__mathlib_dbl_underflow) for __mathlib_dbl_underflow
    atan.o(i.atan) refers to dadd.o(.text) for __aeabi_dadd
    atan.o(i.atan) refers to dscalb.o(.text) for __ARM_scalbn
    atan.o(i.atan) refers to ddiv.o(.text) for __aeabi_ddiv
    atan.o(i.atan) refers to dmul.o(.text) for __aeabi_dmul
    atan.o(i.atan) refers to poly.o(i.__kernel_poly) for __kernel_poly
    atan.o(i.atan) refers to atan.o(.constdata) for .constdata
    atan.o(.constdata) refers (Special) to iusefp.o(.text) for __I$use$fp
    atan_x.o(i.____softfp_atan$lsc) refers (Special) to iusefp.o(.text) for __I$use$fp
    atan_x.o(i.____softfp_atan$lsc) refers to atan_x.o(i.__atan$lsc) for __atan$lsc
    atan_x.o(i.__atan$lsc) refers (Special) to iusefp.o(.text) for __I$use$fp
    atan_x.o(i.__atan$lsc) refers to dunder.o(i.__mathlib_dbl_infnan) for __mathlib_dbl_infnan
    atan_x.o(i.__atan$lsc) refers to dadd.o(.text) for __aeabi_dadd
    atan_x.o(i.__atan$lsc) refers to dscalb.o(.text) for __ARM_scalbn
    atan_x.o(i.__atan$lsc) refers to ddiv.o(.text) for __aeabi_ddiv
    atan_x.o(i.__atan$lsc) refers to dmul.o(.text) for __aeabi_dmul
    atan_x.o(i.__atan$lsc) refers to poly.o(i.__kernel_poly) for __kernel_poly
    atan_x.o(i.__atan$lsc) refers to atan_x.o(.constdata) for .constdata
    atan_x.o(.constdata) refers (Special) to iusefp.o(.text) for __I$use$fp
    dunder.o(i.__mathlib_dbl_divzero) refers to ddiv.o(.text) for __aeabi_ddiv
    dunder.o(i.__mathlib_dbl_infnan) refers to dscalb.o(.text) for __ARM_scalbn
    dunder.o(i.__mathlib_dbl_infnan2) refers to dadd.o(.text) for __aeabi_dadd
    dunder.o(i.__mathlib_dbl_invalid) refers to ddiv.o(.text) for __aeabi_ddiv
    dunder.o(i.__mathlib_dbl_overflow) refers to dscalb.o(.text) for __ARM_scalbn
    dunder.o(i.__mathlib_dbl_posinfnan) refers to dmul.o(.text) for __aeabi_dmul
    dunder.o(i.__mathlib_dbl_underflow) refers to dscalb.o(.text) for __ARM_scalbn
    fpclassify.o(i.__ARM_fpclassify) refers (Special) to iusefp.o(.text) for __I$use$fp
    fpclassifyf.o(i.__ARM_fpclassifyf) refers (Special) to iusefp.o(.text) for __I$use$fp
    funder.o(i.__mathlib_flt_divzero) refers to fdiv.o(.text) for __aeabi_fdiv
    funder.o(i.__mathlib_flt_infnan) refers to fscalb.o(.text) for __ARM_scalbnf
    funder.o(i.__mathlib_flt_infnan2) refers to fadd.o(.text) for __aeabi_fadd
    funder.o(i.__mathlib_flt_invalid) refers to fdiv.o(.text) for __aeabi_fdiv
    funder.o(i.__mathlib_flt_overflow) refers to fscalb.o(.text) for __ARM_scalbnf
    funder.o(i.__mathlib_flt_posinfnan) refers to fmul.o(.text) for __aeabi_fmul
    funder.o(i.__mathlib_flt_underflow) refers to fscalb.o(.text) for __ARM_scalbnf
    poly.o(i.__kernel_poly) refers (Special) to iusefp.o(.text) for __I$use$fp
    poly.o(i.__kernel_poly) refers to dmul.o(.text) for __aeabi_dmul
    poly.o(i.__kernel_poly) refers to dadd.o(.text) for __aeabi_dadd
    qnan.o(.constdata) refers (Special) to iusefp.o(.text) for __I$use$fp
    rredf.o(i.__mathlib_rredf2) refers (Special) to iusefp.o(.text) for __I$use$fp
    rredf.o(i.__mathlib_rredf2) refers to fflti.o(.text) for __aeabi_i2f
    rredf.o(i.__mathlib_rredf2) refers to ffltui.o(.text) for __aeabi_ui2f
    rredf.o(i.__mathlib_rredf2) refers to fscalb.o(.text) for __ARM_scalbnf
    rredf.o(i.__mathlib_rredf2) refers to fadd.o(.text) for __aeabi_fadd
    rredf.o(i.__mathlib_rredf2) refers to fmul.o(.text) for __aeabi_fmul
    rredf.o(i.__mathlib_rredf2) refers to rredf.o(.constdata) for .constdata
    rredf.o(.constdata) refers (Special) to iusefp.o(.text) for __I$use$fp
    sqrt.o(i.__softfp_sqrt) refers (Special) to iusefp.o(.text) for __I$use$fp
    sqrt.o(i.__softfp_sqrt) refers to dsqrt.o(.text) for _dsqrt
    sqrt.o(i.__softfp_sqrt) refers to errno.o(i.__set_errno) for __set_errno
    sqrt.o(i.sqrt) refers (Special) to iusefp.o(.text) for __I$use$fp
    sqrt.o(i.sqrt) refers to dsqrt.o(.text) for _dsqrt
    sqrt.o(i.sqrt) refers to errno.o(i.__set_errno) for __set_errno
    sqrt_x.o(i.____softfp_sqrt$lsc) refers (Special) to iusefp.o(.text) for __I$use$fp
    sqrt_x.o(i.____softfp_sqrt$lsc) refers to cdcmple.o(.text) for __aeabi_cdcmple
    sqrt_x.o(i.____softfp_sqrt$lsc) refers to errno.o(i.__set_errno) for __set_errno
    sqrt_x.o(i.____softfp_sqrt$lsc) refers to dsqrt.o(.text) for _dsqrt
    sqrt_x.o(i.__sqrt$lsc) refers (Special) to iusefp.o(.text) for __I$use$fp
    sqrt_x.o(i.__sqrt$lsc) refers to cdcmple.o(.text) for __aeabi_cdcmple
    sqrt_x.o(i.__sqrt$lsc) refers to errno.o(i.__set_errno) for __set_errno
    sqrt_x.o(i.__sqrt$lsc) refers to dsqrt.o(.text) for _dsqrt
    entry2.o(.ARM.Collect$$$$00000001) refers to entry2.o(.ARM.Collect$$$$00002712) for __lit__00000000
    entry2.o(.ARM.Collect$$$$00002712) refers to startup_stm32f10x_md.o(STACK) for __initial_sp
    entry2.o(__vectab_stack_and_reset_area) refers to startup_stm32f10x_md.o(STACK) for __initial_sp
    entry2.o(__vectab_stack_and_reset_area) refers to entry.o(.ARM.Collect$$$$00000000) for __main
    entry5.o(.ARM.Collect$$$$00000004) refers to init.o(.text) for __scatterload
    entry9a.o(.ARM.Collect$$$$0000000B) refers to main.o(i.main) for main
    entry9b.o(.ARM.Collect$$$$0000000C) refers to main.o(i.main) for main
    uldiv.o(.text) refers to llushr.o(.text) for __aeabi_llsr
    uldiv.o(.text) refers to llshl.o(.text) for __aeabi_llsl
    errno.o(i.__aeabi_errno_addr) refers to errno.o(.data) for .data
    errno.o(i.__read_errno) refers to errno.o(.data) for .data
    errno.o(i.__set_errno) refers to errno.o(.data) for .data
    scanf_char_file.o(.text) refers to scanf_char.o(.text) for __vfscanf_char
    scanf_char_file.o(.text) refers to bsp_usart.o(i.fgetc) for fgetc
    scanf_char_file.o(.text) refers to fgetc_b.o(.text) for __backspace
    fsqrt.o(.text) refers to fepilogue.o(.text) for _float_round
    frnd.o(.text) refers to fepilogue.o(.text) for _float_round
    depilogue.o(.text) refers to llshl.o(.text) for __aeabi_llsl
    depilogue.o(.text) refers to llushr.o(.text) for __aeabi_llsr
    dfixul.o(.text) refers to llushr.o(.text) for __aeabi_llsr
    dfixul.o(.text) refers to llshl.o(.text) for __aeabi_llsl
    init.o(.text) refers to entry5.o(.ARM.Collect$$$$00000004) for __main_after_scatterload
    fgetc_b.o(.text) refers (Special) to iusesemig.o(.text) for __I$use$semihosting$fgetc
    fgetc_b.o(.text) refers (Special) to semi.o(.text) for __semihosting_library_function
    fgetc_b.o(.text) refers to fgetc_b.o(.data) for .data
    fgetc_b.o(.data) refers (Special) to iusesemig.o(.text) for __I$use$semihosting$fgetc
    fgetc_b.o(.data) refers (Special) to semi.o(.text) for __semihosting_library_function
    scanf_char.o(.text) refers to _scanf.o(.text) for __vfscanf
    scanf_char.o(.text) refers to isspace_c.o(.text) for isspace
    dsqrt.o(.text) refers to llushr.o(.text) for __aeabi_llsr
    dsqrt.o(.text) refers to depilogue.o(.text) for _double_round
    isspace_c.o(.text) refers to ctype_c.o(.text) for __ctype_lookup
    _scanf.o(.text) refers (Weak) to _scanf_int.o(.text) for _scanf_int
    ctype_c.o(.text) refers to ctype_c.o(.constdata) for .constdata
    imualgo.o(i._ZSt5atan2ff) refers to atan2f.o(i.atan2f) for atan2f
    imualgo.o(.ARM.exidx) refers to imualgo.o(i._ZSt5atan2ff) for i._ZSt5atan2ff


==============================================================================

Removing Unused input sections from the image.

    Removing startup_stm32f10x_md.o(HEAP), (512 bytes).
    Removing core_cm3.o(.emb_text), (32 bytes).
    Removing system_stm32f10x.o(i.SystemCoreClockUpdate), (164 bytes).
    Removing misc.o(i.NVIC_SetVectorTable), (20 bytes).
    Removing misc.o(i.NVIC_SystemLPConfig), (32 bytes).
    Removing misc.o(i.SysTick_CLKSourceConfig), (40 bytes).
    Removing stm32f10x_adc.o(i.ADC_AnalogWatchdogCmd), (20 bytes).
    Removing stm32f10x_adc.o(i.ADC_AnalogWatchdogSingleChannelConfig), (16 bytes).
    Removing stm32f10x_adc.o(i.ADC_AnalogWatchdogThresholdsConfig), (6 bytes).
    Removing stm32f10x_adc.o(i.ADC_AutoInjectedConvCmd), (22 bytes).
    Removing stm32f10x_adc.o(i.ADC_ClearFlag), (6 bytes).
    Removing stm32f10x_adc.o(i.ADC_ClearITPendingBit), (10 bytes).
    Removing stm32f10x_adc.o(i.ADC_Cmd), (22 bytes).
    Removing stm32f10x_adc.o(i.ADC_DMACmd), (22 bytes).
    Removing stm32f10x_adc.o(i.ADC_DeInit), (92 bytes).
    Removing stm32f10x_adc.o(i.ADC_DiscModeChannelCountConfig), (24 bytes).
    Removing stm32f10x_adc.o(i.ADC_DiscModeCmd), (22 bytes).
    Removing stm32f10x_adc.o(i.ADC_ExternalTrigConvCmd), (22 bytes).
    Removing stm32f10x_adc.o(i.ADC_ExternalTrigInjectedConvCmd), (22 bytes).
    Removing stm32f10x_adc.o(i.ADC_ExternalTrigInjectedConvConfig), (16 bytes).
    Removing stm32f10x_adc.o(i.ADC_GetCalibrationStatus), (20 bytes).
    Removing stm32f10x_adc.o(i.ADC_GetConversionValue), (8 bytes).
    Removing stm32f10x_adc.o(i.ADC_GetDualModeConversionValue), (12 bytes).
    Removing stm32f10x_adc.o(i.ADC_GetFlagStatus), (18 bytes).
    Removing stm32f10x_adc.o(i.ADC_GetITStatus), (36 bytes).
    Removing stm32f10x_adc.o(i.ADC_GetInjectedConversionValue), (28 bytes).
    Removing stm32f10x_adc.o(i.ADC_GetResetCalibrationStatus), (20 bytes).
    Removing stm32f10x_adc.o(i.ADC_GetSoftwareStartConvStatus), (20 bytes).
    Removing stm32f10x_adc.o(i.ADC_GetSoftwareStartInjectedConvCmdStatus), (20 bytes).
    Removing stm32f10x_adc.o(i.ADC_ITConfig), (24 bytes).
    Removing stm32f10x_adc.o(i.ADC_Init), (80 bytes).
    Removing stm32f10x_adc.o(i.ADC_InjectedChannelConfig), (130 bytes).
    Removing stm32f10x_adc.o(i.ADC_InjectedDiscModeCmd), (22 bytes).
    Removing stm32f10x_adc.o(i.ADC_InjectedSequencerLengthConfig), (24 bytes).
    Removing stm32f10x_adc.o(i.ADC_RegularChannelConfig), (184 bytes).
    Removing stm32f10x_adc.o(i.ADC_ResetCalibration), (10 bytes).
    Removing stm32f10x_adc.o(i.ADC_SetInjectedOffset), (20 bytes).
    Removing stm32f10x_adc.o(i.ADC_SoftwareStartConvCmd), (22 bytes).
    Removing stm32f10x_adc.o(i.ADC_SoftwareStartInjectedConvCmd), (22 bytes).
    Removing stm32f10x_adc.o(i.ADC_StartCalibration), (10 bytes).
    Removing stm32f10x_adc.o(i.ADC_StructInit), (18 bytes).
    Removing stm32f10x_adc.o(i.ADC_TempSensorVrefintCmd), (36 bytes).
    Removing stm32f10x_bkp.o(i.BKP_ClearFlag), (20 bytes).
    Removing stm32f10x_bkp.o(i.BKP_ClearITPendingBit), (20 bytes).
    Removing stm32f10x_bkp.o(i.BKP_DeInit), (16 bytes).
    Removing stm32f10x_bkp.o(i.BKP_GetFlagStatus), (12 bytes).
    Removing stm32f10x_bkp.o(i.BKP_GetITStatus), (12 bytes).
    Removing stm32f10x_bkp.o(i.BKP_ITConfig), (12 bytes).
    Removing stm32f10x_bkp.o(i.BKP_RTCOutputConfig), (28 bytes).
    Removing stm32f10x_bkp.o(i.BKP_ReadBackupRegister), (28 bytes).
    Removing stm32f10x_bkp.o(i.BKP_SetRTCCalibrationValue), (28 bytes).
    Removing stm32f10x_bkp.o(i.BKP_TamperPinCmd), (12 bytes).
    Removing stm32f10x_bkp.o(i.BKP_TamperPinLevelConfig), (12 bytes).
    Removing stm32f10x_bkp.o(i.BKP_WriteBackupRegister), (28 bytes).
    Removing stm32f10x_can.o(i.CAN_CancelTransmit), (48 bytes).
    Removing stm32f10x_can.o(i.CAN_ClearFlag), (56 bytes).
    Removing stm32f10x_can.o(i.CAN_ClearITPendingBit), (168 bytes).
    Removing stm32f10x_can.o(i.CAN_DBGFreeze), (22 bytes).
    Removing stm32f10x_can.o(i.CAN_DeInit), (56 bytes).
    Removing stm32f10x_can.o(i.CAN_FIFORelease), (22 bytes).
    Removing stm32f10x_can.o(i.CAN_FilterInit), (264 bytes).
    Removing stm32f10x_can.o(i.CAN_GetFlagStatus), (120 bytes).
    Removing stm32f10x_can.o(i.CAN_GetITStatus), (288 bytes).
    Removing stm32f10x_can.o(i.CAN_GetLSBTransmitErrorCounter), (12 bytes).
    Removing stm32f10x_can.o(i.CAN_GetLastErrorCode), (12 bytes).
    Removing stm32f10x_can.o(i.CAN_GetReceiveErrorCounter), (10 bytes).
    Removing stm32f10x_can.o(i.CAN_ITConfig), (18 bytes).
    Removing stm32f10x_can.o(i.CAN_Init), (276 bytes).
    Removing stm32f10x_can.o(i.CAN_MessagePending), (30 bytes).
    Removing stm32f10x_can.o(i.CAN_OperatingModeRequest), (162 bytes).
    Removing stm32f10x_can.o(i.CAN_Receive), (240 bytes).
    Removing stm32f10x_can.o(i.CAN_SlaveStartBank), (52 bytes).
    Removing stm32f10x_can.o(i.CAN_Sleep), (30 bytes).
    Removing stm32f10x_can.o(i.CAN_StructInit), (32 bytes).
    Removing stm32f10x_can.o(i.CAN_TTComModeCmd), (118 bytes).
    Removing stm32f10x_can.o(i.CAN_Transmit), (294 bytes).
    Removing stm32f10x_can.o(i.CAN_TransmitStatus), (160 bytes).
    Removing stm32f10x_can.o(i.CAN_WakeUp), (48 bytes).
    Removing stm32f10x_can.o(i.CheckITStatus), (18 bytes).
    Removing stm32f10x_cec.o(i.CEC_ClearFlag), (36 bytes).
    Removing stm32f10x_cec.o(i.CEC_ClearITPendingBit), (36 bytes).
    Removing stm32f10x_cec.o(i.CEC_Cmd), (32 bytes).
    Removing stm32f10x_cec.o(i.CEC_DeInit), (22 bytes).
    Removing stm32f10x_cec.o(i.CEC_EndOfMessageCmd), (12 bytes).
    Removing stm32f10x_cec.o(i.CEC_GetFlagStatus), (48 bytes).
    Removing stm32f10x_cec.o(i.CEC_GetITStatus), (40 bytes).
    Removing stm32f10x_cec.o(i.CEC_ITConfig), (12 bytes).
    Removing stm32f10x_cec.o(i.CEC_Init), (32 bytes).
    Removing stm32f10x_cec.o(i.CEC_OwnAddressConfig), (12 bytes).
    Removing stm32f10x_cec.o(i.CEC_ReceiveDataByte), (12 bytes).
    Removing stm32f10x_cec.o(i.CEC_SendDataByte), (12 bytes).
    Removing stm32f10x_cec.o(i.CEC_SetPrescaler), (12 bytes).
    Removing stm32f10x_cec.o(i.CEC_StartOfMessage), (12 bytes).
    Removing stm32f10x_crc.o(i.CRC_CalcBlockCRC), (36 bytes).
    Removing stm32f10x_crc.o(i.CRC_CalcCRC), (16 bytes).
    Removing stm32f10x_crc.o(i.CRC_GetCRC), (12 bytes).
    Removing stm32f10x_crc.o(i.CRC_GetIDRegister), (12 bytes).
    Removing stm32f10x_crc.o(i.CRC_ResetDR), (12 bytes).
    Removing stm32f10x_crc.o(i.CRC_SetIDRegister), (12 bytes).
    Removing stm32f10x_dac.o(i.DAC_Cmd), (40 bytes).
    Removing stm32f10x_dac.o(i.DAC_DMACmd), (44 bytes).
    Removing stm32f10x_dac.o(i.DAC_DeInit), (22 bytes).
    Removing stm32f10x_dac.o(i.DAC_DualSoftwareTriggerCmd), (36 bytes).
    Removing stm32f10x_dac.o(i.DAC_GetDataOutputValue), (36 bytes).
    Removing stm32f10x_dac.o(i.DAC_Init), (52 bytes).
    Removing stm32f10x_dac.o(i.DAC_SetChannel1Data), (32 bytes).
    Removing stm32f10x_dac.o(i.DAC_SetChannel2Data), (32 bytes).
    Removing stm32f10x_dac.o(i.DAC_SetDualChannelData), (36 bytes).
    Removing stm32f10x_dac.o(i.DAC_SoftwareTriggerCmd), (44 bytes).
    Removing stm32f10x_dac.o(i.DAC_StructInit), (12 bytes).
    Removing stm32f10x_dac.o(i.DAC_WaveGenerationCmd), (40 bytes).
    Removing stm32f10x_dbgmcu.o(i.DBGMCU_Config), (32 bytes).
    Removing stm32f10x_dbgmcu.o(i.DBGMCU_GetDEVID), (16 bytes).
    Removing stm32f10x_dbgmcu.o(i.DBGMCU_GetREVID), (12 bytes).
    Removing stm32f10x_dma.o(i.DMA_ClearFlag), (28 bytes).
    Removing stm32f10x_dma.o(i.DMA_ClearITPendingBit), (28 bytes).
    Removing stm32f10x_dma.o(i.DMA_Cmd), (24 bytes).
    Removing stm32f10x_dma.o(i.DMA_DeInit), (332 bytes).
    Removing stm32f10x_dma.o(i.DMA_GetCurrDataCounter), (8 bytes).
    Removing stm32f10x_dma.o(i.DMA_GetFlagStatus), (44 bytes).
    Removing stm32f10x_dma.o(i.DMA_GetITStatus), (44 bytes).
    Removing stm32f10x_dma.o(i.DMA_ITConfig), (18 bytes).
    Removing stm32f10x_dma.o(i.DMA_Init), (60 bytes).
    Removing stm32f10x_dma.o(i.DMA_SetCurrDataCounter), (4 bytes).
    Removing stm32f10x_dma.o(i.DMA_StructInit), (26 bytes).
    Removing stm32f10x_exti.o(i.EXTI_ClearFlag), (12 bytes).
    Removing stm32f10x_exti.o(i.EXTI_DeInit), (36 bytes).
    Removing stm32f10x_exti.o(i.EXTI_GenerateSWInterrupt), (16 bytes).
    Removing stm32f10x_exti.o(i.EXTI_GetFlagStatus), (24 bytes).
    Removing stm32f10x_exti.o(i.EXTI_StructInit), (16 bytes).
    Removing stm32f10x_flash.o(i.FLASH_ClearFlag), (12 bytes).
    Removing stm32f10x_flash.o(i.FLASH_EnableWriteProtection), (196 bytes).
    Removing stm32f10x_flash.o(i.FLASH_EraseAllBank1Pages), (72 bytes).
    Removing stm32f10x_flash.o(i.FLASH_EraseAllPages), (72 bytes).
    Removing stm32f10x_flash.o(i.FLASH_EraseOptionBytes), (168 bytes).
    Removing stm32f10x_flash.o(i.FLASH_ErasePage), (76 bytes).
    Removing stm32f10x_flash.o(i.FLASH_GetBank1Status), (52 bytes).
    Removing stm32f10x_flash.o(i.FLASH_GetFlagStatus), (48 bytes).
    Removing stm32f10x_flash.o(i.FLASH_GetPrefetchBufferStatus), (24 bytes).
    Removing stm32f10x_flash.o(i.FLASH_GetReadOutProtectionStatus), (24 bytes).
    Removing stm32f10x_flash.o(i.FLASH_GetStatus), (52 bytes).
    Removing stm32f10x_flash.o(i.FLASH_GetUserOptionByte), (12 bytes).
    Removing stm32f10x_flash.o(i.FLASH_GetWriteProtectionOptionByte), (12 bytes).
    Removing stm32f10x_flash.o(i.FLASH_HalfCycleAccessCmd), (28 bytes).
    Removing stm32f10x_flash.o(i.FLASH_ITConfig), (32 bytes).
    Removing stm32f10x_flash.o(i.FLASH_Lock), (20 bytes).
    Removing stm32f10x_flash.o(i.FLASH_LockBank1), (20 bytes).
    Removing stm32f10x_flash.o(i.FLASH_PrefetchBufferCmd), (28 bytes).
    Removing stm32f10x_flash.o(i.FLASH_ProgramHalfWord), (64 bytes).
    Removing stm32f10x_flash.o(i.FLASH_ProgramOptionByteData), (84 bytes).
    Removing stm32f10x_flash.o(i.FLASH_ProgramWord), (108 bytes).
    Removing stm32f10x_flash.o(i.FLASH_ReadOutProtection), (172 bytes).
    Removing stm32f10x_flash.o(i.FLASH_SetLatency), (24 bytes).
    Removing stm32f10x_flash.o(i.FLASH_Unlock), (24 bytes).
    Removing stm32f10x_flash.o(i.FLASH_UnlockBank1), (24 bytes).
    Removing stm32f10x_flash.o(i.FLASH_UserOptionByteConfig), (104 bytes).
    Removing stm32f10x_flash.o(i.FLASH_WaitForLastBank1Operation), (38 bytes).
    Removing stm32f10x_flash.o(i.FLASH_WaitForLastOperation), (38 bytes).
    Removing stm32f10x_fsmc.o(i.FSMC_ClearFlag), (64 bytes).
    Removing stm32f10x_fsmc.o(i.FSMC_ClearITPendingBit), (72 bytes).
    Removing stm32f10x_fsmc.o(i.FSMC_GetECC), (28 bytes).
    Removing stm32f10x_fsmc.o(i.FSMC_GetFlagStatus), (56 bytes).
    Removing stm32f10x_fsmc.o(i.FSMC_GetITStatus), (68 bytes).
    Removing stm32f10x_fsmc.o(i.FSMC_ITConfig), (128 bytes).
    Removing stm32f10x_fsmc.o(i.FSMC_NANDCmd), (92 bytes).
    Removing stm32f10x_fsmc.o(i.FSMC_NANDDeInit), (68 bytes).
    Removing stm32f10x_fsmc.o(i.FSMC_NANDECCCmd), (92 bytes).
    Removing stm32f10x_fsmc.o(i.FSMC_NANDInit), (136 bytes).
    Removing stm32f10x_fsmc.o(i.FSMC_NANDStructInit), (54 bytes).
    Removing stm32f10x_fsmc.o(i.FSMC_NORSRAMCmd), (52 bytes).
    Removing stm32f10x_fsmc.o(i.FSMC_NORSRAMDeInit), (54 bytes).
    Removing stm32f10x_fsmc.o(i.FSMC_NORSRAMInit), (230 bytes).
    Removing stm32f10x_fsmc.o(i.FSMC_NORSRAMStructInit), (114 bytes).
    Removing stm32f10x_fsmc.o(i.FSMC_PCCARDCmd), (48 bytes).
    Removing stm32f10x_fsmc.o(i.FSMC_PCCARDDeInit), (40 bytes).
    Removing stm32f10x_fsmc.o(i.FSMC_PCCARDInit), (132 bytes).
    Removing stm32f10x_fsmc.o(i.FSMC_PCCARDStructInit), (60 bytes).
    Removing stm32f10x_gpio.o(i.GPIO_AFIODeInit), (20 bytes).
    Removing stm32f10x_gpio.o(i.GPIO_DeInit), (200 bytes).
    Removing stm32f10x_gpio.o(i.GPIO_ETH_MediaInterfaceConfig), (12 bytes).
    Removing stm32f10x_gpio.o(i.GPIO_EventOutputCmd), (12 bytes).
    Removing stm32f10x_gpio.o(i.GPIO_EventOutputConfig), (32 bytes).
    Removing stm32f10x_gpio.o(i.GPIO_PinLockConfig), (18 bytes).
    Removing stm32f10x_gpio.o(i.GPIO_PinRemapConfig), (144 bytes).
    Removing stm32f10x_gpio.o(i.GPIO_ReadInputData), (8 bytes).
    Removing stm32f10x_gpio.o(i.GPIO_ReadInputDataBit), (18 bytes).
    Removing stm32f10x_gpio.o(i.GPIO_ReadOutputData), (8 bytes).
    Removing stm32f10x_gpio.o(i.GPIO_ReadOutputDataBit), (18 bytes).
    Removing stm32f10x_gpio.o(i.GPIO_StructInit), (16 bytes).
    Removing stm32f10x_gpio.o(i.GPIO_Write), (4 bytes).
    Removing stm32f10x_gpio.o(i.GPIO_WriteBit), (10 bytes).
    Removing stm32f10x_i2c.o(i.I2C_ARPCmd), (24 bytes).
    Removing stm32f10x_i2c.o(i.I2C_AcknowledgeConfig), (24 bytes).
    Removing stm32f10x_i2c.o(i.I2C_CalculatePEC), (24 bytes).
    Removing stm32f10x_i2c.o(i.I2C_CheckEvent), (42 bytes).
    Removing stm32f10x_i2c.o(i.I2C_ClearFlag), (12 bytes).
    Removing stm32f10x_i2c.o(i.I2C_ClearITPendingBit), (12 bytes).
    Removing stm32f10x_i2c.o(i.I2C_Cmd), (24 bytes).
    Removing stm32f10x_i2c.o(i.I2C_DMACmd), (24 bytes).
    Removing stm32f10x_i2c.o(i.I2C_DMALastTransferCmd), (24 bytes).
    Removing stm32f10x_i2c.o(i.I2C_DeInit), (56 bytes).
    Removing stm32f10x_i2c.o(i.I2C_DualAddressCmd), (24 bytes).
    Removing stm32f10x_i2c.o(i.I2C_FastModeDutyCycleConfig), (28 bytes).
    Removing stm32f10x_i2c.o(i.I2C_GeneralCallCmd), (24 bytes).
    Removing stm32f10x_i2c.o(i.I2C_GenerateSTART), (24 bytes).
    Removing stm32f10x_i2c.o(i.I2C_GenerateSTOP), (24 bytes).
    Removing stm32f10x_i2c.o(i.I2C_GetFlagStatus), (58 bytes).
    Removing stm32f10x_i2c.o(i.I2C_GetITStatus), (38 bytes).
    Removing stm32f10x_i2c.o(i.I2C_GetLastEvent), (26 bytes).
    Removing stm32f10x_i2c.o(i.I2C_GetPEC), (8 bytes).
    Removing stm32f10x_i2c.o(i.I2C_ITConfig), (18 bytes).
    Removing stm32f10x_i2c.o(i.I2C_Init), (236 bytes).
    Removing stm32f10x_i2c.o(i.I2C_NACKPositionConfig), (28 bytes).
    Removing stm32f10x_i2c.o(i.I2C_OwnAddress2Config), (22 bytes).
    Removing stm32f10x_i2c.o(i.I2C_PECPositionConfig), (28 bytes).
    Removing stm32f10x_i2c.o(i.I2C_ReadRegister), (22 bytes).
    Removing stm32f10x_i2c.o(i.I2C_ReceiveData), (8 bytes).
    Removing stm32f10x_i2c.o(i.I2C_SMBusAlertConfig), (28 bytes).
    Removing stm32f10x_i2c.o(i.I2C_Send7bitAddress), (18 bytes).
    Removing stm32f10x_i2c.o(i.I2C_SendData), (4 bytes).
    Removing stm32f10x_i2c.o(i.I2C_SoftwareResetCmd), (22 bytes).
    Removing stm32f10x_i2c.o(i.I2C_StretchClockCmd), (24 bytes).
    Removing stm32f10x_i2c.o(i.I2C_StructInit), (30 bytes).
    Removing stm32f10x_i2c.o(i.I2C_TransmitPEC), (24 bytes).
    Removing stm32f10x_iwdg.o(i.IWDG_Enable), (16 bytes).
    Removing stm32f10x_iwdg.o(i.IWDG_GetFlagStatus), (24 bytes).
    Removing stm32f10x_iwdg.o(i.IWDG_ReloadCounter), (16 bytes).
    Removing stm32f10x_iwdg.o(i.IWDG_SetPrescaler), (12 bytes).
    Removing stm32f10x_iwdg.o(i.IWDG_SetReload), (12 bytes).
    Removing stm32f10x_iwdg.o(i.IWDG_WriteAccessCmd), (12 bytes).
    Removing stm32f10x_pwr.o(i.PWR_BackupAccessCmd), (12 bytes).
    Removing stm32f10x_pwr.o(i.PWR_ClearFlag), (20 bytes).
    Removing stm32f10x_pwr.o(i.PWR_DeInit), (22 bytes).
    Removing stm32f10x_pwr.o(i.PWR_EnterSTANDBYMode), (52 bytes).
    Removing stm32f10x_pwr.o(i.PWR_GetFlagStatus), (24 bytes).
    Removing stm32f10x_pwr.o(i.PWR_PVDCmd), (12 bytes).
    Removing stm32f10x_pwr.o(i.PWR_PVDLevelConfig), (24 bytes).
    Removing stm32f10x_pwr.o(i.PWR_WakeUpPinCmd), (12 bytes).
    Removing stm32f10x_rcc.o(i.RCC_ADCCLKConfig), (24 bytes).
    Removing stm32f10x_rcc.o(i.RCC_AHBPeriphClockCmd), (32 bytes).
    Removing stm32f10x_rcc.o(i.RCC_APB1PeriphResetCmd), (32 bytes).
    Removing stm32f10x_rcc.o(i.RCC_APB2PeriphResetCmd), (32 bytes).
    Removing stm32f10x_rcc.o(i.RCC_AdjustHSICalibrationValue), (24 bytes).
    Removing stm32f10x_rcc.o(i.RCC_BackupResetCmd), (12 bytes).
    Removing stm32f10x_rcc.o(i.RCC_ClearFlag), (20 bytes).
    Removing stm32f10x_rcc.o(i.RCC_ClearITPendingBit), (12 bytes).
    Removing stm32f10x_rcc.o(i.RCC_ClockSecuritySystemCmd), (12 bytes).
    Removing stm32f10x_rcc.o(i.RCC_GetITStatus), (24 bytes).
    Removing stm32f10x_rcc.o(i.RCC_HSICmd), (12 bytes).
    Removing stm32f10x_rcc.o(i.RCC_ITConfig), (32 bytes).
    Removing stm32f10x_rcc.o(i.RCC_LSEConfig), (52 bytes).
    Removing stm32f10x_rcc.o(i.RCC_LSICmd), (12 bytes).
    Removing stm32f10x_rcc.o(i.RCC_MCOConfig), (12 bytes).
    Removing stm32f10x_rcc.o(i.RCC_RTCCLKCmd), (12 bytes).
    Removing stm32f10x_rcc.o(i.RCC_RTCCLKConfig), (16 bytes).
    Removing stm32f10x_rcc.o(i.RCC_USBCLKConfig), (12 bytes).
    Removing stm32f10x_rtc.o(i.RTC_ClearFlag), (16 bytes).
    Removing stm32f10x_rtc.o(i.RTC_ClearITPendingBit), (16 bytes).
    Removing stm32f10x_rtc.o(i.RTC_EnterConfigMode), (20 bytes).
    Removing stm32f10x_rtc.o(i.RTC_ExitConfigMode), (20 bytes).
    Removing stm32f10x_rtc.o(i.RTC_GetCounter), (20 bytes).
    Removing stm32f10x_rtc.o(i.RTC_GetDivider), (24 bytes).
    Removing stm32f10x_rtc.o(i.RTC_GetFlagStatus), (24 bytes).
    Removing stm32f10x_rtc.o(i.RTC_GetITStatus), (36 bytes).
    Removing stm32f10x_rtc.o(i.RTC_ITConfig), (32 bytes).
    Removing stm32f10x_rtc.o(i.RTC_SetAlarm), (28 bytes).
    Removing stm32f10x_rtc.o(i.RTC_SetCounter), (28 bytes).
    Removing stm32f10x_rtc.o(i.RTC_SetPrescaler), (32 bytes).
    Removing stm32f10x_rtc.o(i.RTC_WaitForLastTask), (20 bytes).
    Removing stm32f10x_rtc.o(i.RTC_WaitForSynchro), (36 bytes).
    Removing stm32f10x_sdio.o(i.SDIO_CEATAITCmd), (16 bytes).
    Removing stm32f10x_sdio.o(i.SDIO_ClearFlag), (12 bytes).
    Removing stm32f10x_sdio.o(i.SDIO_ClearITPendingBit), (12 bytes).
    Removing stm32f10x_sdio.o(i.SDIO_ClockCmd), (12 bytes).
    Removing stm32f10x_sdio.o(i.SDIO_CmdStructInit), (14 bytes).
    Removing stm32f10x_sdio.o(i.SDIO_CommandCompletionCmd), (12 bytes).
    Removing stm32f10x_sdio.o(i.SDIO_DMACmd), (12 bytes).
    Removing stm32f10x_sdio.o(i.SDIO_DataConfig), (48 bytes).
    Removing stm32f10x_sdio.o(i.SDIO_DataStructInit), (20 bytes).
    Removing stm32f10x_sdio.o(i.SDIO_DeInit), (36 bytes).
    Removing stm32f10x_sdio.o(i.SDIO_GetCommandResponse), (12 bytes).
    Removing stm32f10x_sdio.o(i.SDIO_GetDataCounter), (12 bytes).
    Removing stm32f10x_sdio.o(i.SDIO_GetFIFOCount), (12 bytes).
    Removing stm32f10x_sdio.o(i.SDIO_GetFlagStatus), (24 bytes).
    Removing stm32f10x_sdio.o(i.SDIO_GetITStatus), (24 bytes).
    Removing stm32f10x_sdio.o(i.SDIO_GetPowerState), (16 bytes).
    Removing stm32f10x_sdio.o(i.SDIO_GetResponse), (24 bytes).
    Removing stm32f10x_sdio.o(i.SDIO_ITConfig), (32 bytes).
    Removing stm32f10x_sdio.o(i.SDIO_Init), (48 bytes).
    Removing stm32f10x_sdio.o(i.SDIO_ReadData), (12 bytes).
    Removing stm32f10x_sdio.o(i.SDIO_SendCEATACmd), (12 bytes).
    Removing stm32f10x_sdio.o(i.SDIO_SendCommand), (44 bytes).
    Removing stm32f10x_sdio.o(i.SDIO_SendSDIOSuspendCmd), (12 bytes).
    Removing stm32f10x_sdio.o(i.SDIO_SetPowerState), (28 bytes).
    Removing stm32f10x_sdio.o(i.SDIO_SetSDIOOperation), (12 bytes).
    Removing stm32f10x_sdio.o(i.SDIO_SetSDIOReadWaitMode), (12 bytes).
    Removing stm32f10x_sdio.o(i.SDIO_StartSDIOReadWait), (12 bytes).
    Removing stm32f10x_sdio.o(i.SDIO_StopSDIOReadWait), (12 bytes).
    Removing stm32f10x_sdio.o(i.SDIO_StructInit), (16 bytes).
    Removing stm32f10x_sdio.o(i.SDIO_WriteData), (12 bytes).
    Removing stm32f10x_spi.o(i.I2S_Cmd), (24 bytes).
    Removing stm32f10x_spi.o(i.I2S_Init), (232 bytes).
    Removing stm32f10x_spi.o(i.I2S_StructInit), (20 bytes).
    Removing stm32f10x_spi.o(i.SPI_BiDirectionalLineConfig), (28 bytes).
    Removing stm32f10x_spi.o(i.SPI_CalculateCRC), (24 bytes).
    Removing stm32f10x_spi.o(i.SPI_Cmd), (24 bytes).
    Removing stm32f10x_spi.o(i.SPI_DataSizeConfig), (18 bytes).
    Removing stm32f10x_spi.o(i.SPI_GetCRC), (16 bytes).
    Removing stm32f10x_spi.o(i.SPI_GetCRCPolynomial), (6 bytes).
    Removing stm32f10x_spi.o(i.SPI_I2S_ClearFlag), (6 bytes).
    Removing stm32f10x_spi.o(i.SPI_I2S_ClearITPendingBit), (20 bytes).
    Removing stm32f10x_spi.o(i.SPI_I2S_DMACmd), (18 bytes).
    Removing stm32f10x_spi.o(i.SPI_I2S_DeInit), (88 bytes).
    Removing stm32f10x_spi.o(i.SPI_I2S_GetFlagStatus), (18 bytes).
    Removing stm32f10x_spi.o(i.SPI_I2S_GetITStatus), (52 bytes).
    Removing stm32f10x_spi.o(i.SPI_I2S_ITConfig), (32 bytes).
    Removing stm32f10x_spi.o(i.SPI_I2S_ReceiveData), (6 bytes).
    Removing stm32f10x_spi.o(i.SPI_I2S_SendData), (4 bytes).
    Removing stm32f10x_spi.o(i.SPI_Init), (60 bytes).
    Removing stm32f10x_spi.o(i.SPI_NSSInternalSoftwareConfig), (30 bytes).
    Removing stm32f10x_spi.o(i.SPI_SSOutputCmd), (24 bytes).
    Removing stm32f10x_spi.o(i.SPI_StructInit), (24 bytes).
    Removing stm32f10x_spi.o(i.SPI_TransmitCRC), (10 bytes).
    Removing stm32f10x_tim.o(i.TI1_Config), (128 bytes).
    Removing stm32f10x_tim.o(i.TI2_Config), (152 bytes).
    Removing stm32f10x_tim.o(i.TI3_Config), (144 bytes).
    Removing stm32f10x_tim.o(i.TI4_Config), (152 bytes).
    Removing stm32f10x_tim.o(i.TIM_ARRPreloadConfig), (24 bytes).
    Removing stm32f10x_tim.o(i.TIM_BDTRConfig), (32 bytes).
    Removing stm32f10x_tim.o(i.TIM_BDTRStructInit), (18 bytes).
    Removing stm32f10x_tim.o(i.TIM_CCPreloadControl), (24 bytes).
    Removing stm32f10x_tim.o(i.TIM_CCxCmd), (30 bytes).
    Removing stm32f10x_tim.o(i.TIM_CCxNCmd), (30 bytes).
    Removing stm32f10x_tim.o(i.TIM_ClearFlag), (6 bytes).
    Removing stm32f10x_tim.o(i.TIM_ClearOC1Ref), (18 bytes).
    Removing stm32f10x_tim.o(i.TIM_ClearOC2Ref), (24 bytes).
    Removing stm32f10x_tim.o(i.TIM_ClearOC3Ref), (18 bytes).
    Removing stm32f10x_tim.o(i.TIM_ClearOC4Ref), (24 bytes).
    Removing stm32f10x_tim.o(i.TIM_Cmd), (24 bytes).
    Removing stm32f10x_tim.o(i.TIM_CounterModeConfig), (18 bytes).
    Removing stm32f10x_tim.o(i.TIM_CtrlPWMOutputs), (30 bytes).
    Removing stm32f10x_tim.o(i.TIM_DMACmd), (18 bytes).
    Removing stm32f10x_tim.o(i.TIM_DMAConfig), (10 bytes).
    Removing stm32f10x_tim.o(i.TIM_DeInit), (488 bytes).
    Removing stm32f10x_tim.o(i.TIM_ETRClockMode1Config), (54 bytes).
    Removing stm32f10x_tim.o(i.TIM_ETRClockMode2Config), (32 bytes).
    Removing stm32f10x_tim.o(i.TIM_ETRConfig), (28 bytes).
    Removing stm32f10x_tim.o(i.TIM_EncoderInterfaceConfig), (66 bytes).
    Removing stm32f10x_tim.o(i.TIM_ForcedOC1Config), (18 bytes).
    Removing stm32f10x_tim.o(i.TIM_ForcedOC2Config), (26 bytes).
    Removing stm32f10x_tim.o(i.TIM_ForcedOC3Config), (18 bytes).
    Removing stm32f10x_tim.o(i.TIM_ForcedOC4Config), (26 bytes).
    Removing stm32f10x_tim.o(i.TIM_GenerateEvent), (4 bytes).
    Removing stm32f10x_tim.o(i.TIM_GetCapture1), (6 bytes).
    Removing stm32f10x_tim.o(i.TIM_GetCapture2), (6 bytes).
    Removing stm32f10x_tim.o(i.TIM_GetCapture3), (6 bytes).
    Removing stm32f10x_tim.o(i.TIM_GetCapture4), (8 bytes).
    Removing stm32f10x_tim.o(i.TIM_GetCounter), (6 bytes).
    Removing stm32f10x_tim.o(i.TIM_GetFlagStatus), (18 bytes).
    Removing stm32f10x_tim.o(i.TIM_GetPrescaler), (6 bytes).
    Removing stm32f10x_tim.o(i.TIM_ICInit), (172 bytes).
    Removing stm32f10x_tim.o(i.TIM_ICStructInit), (18 bytes).
    Removing stm32f10x_tim.o(i.TIM_ITConfig), (18 bytes).
    Removing stm32f10x_tim.o(i.TIM_ITRxExternalClockConfig), (24 bytes).
    Removing stm32f10x_tim.o(i.TIM_InternalClockConfig), (12 bytes).
    Removing stm32f10x_tim.o(i.TIM_OC1FastConfig), (18 bytes).
    Removing stm32f10x_tim.o(i.TIM_OC1Init), (152 bytes).
    Removing stm32f10x_tim.o(i.TIM_OC1NPolarityConfig), (18 bytes).
    Removing stm32f10x_tim.o(i.TIM_OC1PolarityConfig), (18 bytes).
    Removing stm32f10x_tim.o(i.TIM_OC1PreloadConfig), (18 bytes).
    Removing stm32f10x_tim.o(i.TIM_OC2FastConfig), (26 bytes).
    Removing stm32f10x_tim.o(i.TIM_OC2Init), (164 bytes).
    Removing stm32f10x_tim.o(i.TIM_OC2NPolarityConfig), (26 bytes).
    Removing stm32f10x_tim.o(i.TIM_OC2PolarityConfig), (26 bytes).
    Removing stm32f10x_tim.o(i.TIM_OC2PreloadConfig), (26 bytes).
    Removing stm32f10x_tim.o(i.TIM_OC3FastConfig), (18 bytes).
    Removing stm32f10x_tim.o(i.TIM_OC3Init), (160 bytes).
    Removing stm32f10x_tim.o(i.TIM_OC3NPolarityConfig), (26 bytes).
    Removing stm32f10x_tim.o(i.TIM_OC3PolarityConfig), (26 bytes).
    Removing stm32f10x_tim.o(i.TIM_OC3PreloadConfig), (18 bytes).
    Removing stm32f10x_tim.o(i.TIM_OC4FastConfig), (26 bytes).
    Removing stm32f10x_tim.o(i.TIM_OC4Init), (124 bytes).
    Removing stm32f10x_tim.o(i.TIM_OC4PolarityConfig), (26 bytes).
    Removing stm32f10x_tim.o(i.TIM_OC4PreloadConfig), (26 bytes).
    Removing stm32f10x_tim.o(i.TIM_OCStructInit), (20 bytes).
    Removing stm32f10x_tim.o(i.TIM_PWMIConfig), (124 bytes).
    Removing stm32f10x_tim.o(i.TIM_PrescalerConfig), (6 bytes).
    Removing stm32f10x_tim.o(i.TIM_SelectCCDMA), (24 bytes).
    Removing stm32f10x_tim.o(i.TIM_SelectCOM), (24 bytes).
    Removing stm32f10x_tim.o(i.TIM_SelectHallSensor), (24 bytes).
    Removing stm32f10x_tim.o(i.TIM_SelectInputTrigger), (18 bytes).
    Removing stm32f10x_tim.o(i.TIM_SelectMasterSlaveMode), (18 bytes).
    Removing stm32f10x_tim.o(i.TIM_SelectOCxM), (82 bytes).
    Removing stm32f10x_tim.o(i.TIM_SelectOnePulseMode), (18 bytes).
    Removing stm32f10x_tim.o(i.TIM_SelectOutputTrigger), (18 bytes).
    Removing stm32f10x_tim.o(i.TIM_SelectSlaveMode), (18 bytes).
    Removing stm32f10x_tim.o(i.TIM_SetAutoreload), (4 bytes).
    Removing stm32f10x_tim.o(i.TIM_SetClockDivision), (18 bytes).
    Removing stm32f10x_tim.o(i.TIM_SetCompare1), (4 bytes).
    Removing stm32f10x_tim.o(i.TIM_SetCompare2), (4 bytes).
    Removing stm32f10x_tim.o(i.TIM_SetCompare3), (4 bytes).
    Removing stm32f10x_tim.o(i.TIM_SetCompare4), (6 bytes).
    Removing stm32f10x_tim.o(i.TIM_SetCounter), (4 bytes).
    Removing stm32f10x_tim.o(i.TIM_SetIC1Prescaler), (18 bytes).
    Removing stm32f10x_tim.o(i.TIM_SetIC2Prescaler), (26 bytes).
    Removing stm32f10x_tim.o(i.TIM_SetIC3Prescaler), (18 bytes).
    Removing stm32f10x_tim.o(i.TIM_SetIC4Prescaler), (26 bytes).
    Removing stm32f10x_tim.o(i.TIM_TIxExternalClockConfig), (62 bytes).
    Removing stm32f10x_tim.o(i.TIM_TimeBaseInit), (164 bytes).
    Removing stm32f10x_tim.o(i.TIM_TimeBaseStructInit), (18 bytes).
    Removing stm32f10x_tim.o(i.TIM_UpdateDisableConfig), (24 bytes).
    Removing stm32f10x_tim.o(i.TIM_UpdateRequestConfig), (24 bytes).
    Removing stm32f10x_usart.o(i.USART_ClearFlag), (18 bytes).
    Removing stm32f10x_usart.o(i.USART_ClearITPendingBit), (30 bytes).
    Removing stm32f10x_usart.o(i.USART_ClockInit), (34 bytes).
    Removing stm32f10x_usart.o(i.USART_ClockStructInit), (12 bytes).
    Removing stm32f10x_usart.o(i.USART_DMACmd), (18 bytes).
    Removing stm32f10x_usart.o(i.USART_DeInit), (156 bytes).
    Removing stm32f10x_usart.o(i.USART_GetITStatus), (84 bytes).
    Removing stm32f10x_usart.o(i.USART_HalfDuplexCmd), (24 bytes).
    Removing stm32f10x_usart.o(i.USART_ITConfig), (74 bytes).
    Removing stm32f10x_usart.o(i.USART_IrDACmd), (24 bytes).
    Removing stm32f10x_usart.o(i.USART_IrDAConfig), (18 bytes).
    Removing stm32f10x_usart.o(i.USART_LINBreakDetectLengthConfig), (18 bytes).
    Removing stm32f10x_usart.o(i.USART_LINCmd), (24 bytes).
    Removing stm32f10x_usart.o(i.USART_OneBitMethodCmd), (24 bytes).
    Removing stm32f10x_usart.o(i.USART_OverSampling8Cmd), (22 bytes).
    Removing stm32f10x_usart.o(i.USART_ReceiveData), (10 bytes).
    Removing stm32f10x_usart.o(i.USART_ReceiverWakeUpCmd), (24 bytes).
    Removing stm32f10x_usart.o(i.USART_SendBreak), (10 bytes).
    Removing stm32f10x_usart.o(i.USART_SetAddress), (18 bytes).
    Removing stm32f10x_usart.o(i.USART_SetGuardTime), (16 bytes).
    Removing stm32f10x_usart.o(i.USART_SetPrescaler), (16 bytes).
    Removing stm32f10x_usart.o(i.USART_SmartCardCmd), (24 bytes).
    Removing stm32f10x_usart.o(i.USART_SmartCardNACKCmd), (24 bytes).
    Removing stm32f10x_usart.o(i.USART_StructInit), (24 bytes).
    Removing stm32f10x_usart.o(i.USART_WakeUpConfig), (18 bytes).
    Removing stm32f10x_wwdg.o(i.WWDG_ClearFlag), (12 bytes).
    Removing stm32f10x_wwdg.o(i.WWDG_DeInit), (22 bytes).
    Removing stm32f10x_wwdg.o(i.WWDG_Enable), (16 bytes).
    Removing stm32f10x_wwdg.o(i.WWDG_EnableIT), (12 bytes).
    Removing stm32f10x_wwdg.o(i.WWDG_GetFlagStatus), (12 bytes).
    Removing stm32f10x_wwdg.o(i.WWDG_SetCounter), (16 bytes).
    Removing stm32f10x_wwdg.o(i.WWDG_SetPrescaler), (24 bytes).
    Removing stm32f10x_wwdg.o(i.WWDG_SetWindowValue), (40 bytes).
    Removing main.o(i.bsp_led_set), (36 bytes).
    Removing main.o(i.bsp_timer2_init), (132 bytes).
    Removing main.o(i.bsp_timer2_set), (34 bytes).
    Removing main.o(i.imu_calc_euler), (212 bytes).
    Removing main.o(i.imu_drdy_callback), (200 bytes).
    Removing bsp_usart.o(i.fgetc), (32 bytes).
    Removing bsp_i2c.o(i.I2C_BufferRead), (404 bytes).
    Removing bsp_i2c.o(i.I2C_Bus_Init), (12 bytes).
    Removing bsp_i2c.o(i.I2C_Bus_set_slave_addr), (12 bytes).
    Removing bsp_i2c.o(i.I2C_ByteWrite), (244 bytes).
    Removing bsp_i2c.o(i.I2C_GPIO_Config), (68 bytes).
    Removing bsp_i2c.o(i.I2C_Mode_Configu), (68 bytes).
    Removing bsp_i2c.o(i.I2C_TIMEOUT_UserCallback), (52 bytes).
    Removing bsp_i2c.o(i.I2C_WaitStandbyState), (84 bytes).
    Removing bsp_i2c.o(.data), (5 bytes).
    Removing bsp_rtc.o(i.RTC_CheckAndConfig), (300 bytes).
    Removing bsp_rtc.o(i.RTC_Configuration), (88 bytes).
    Removing bsp_rtc.o(i.RTC_NVIC_Config), (42 bytes).
    Removing bsp_rtc.o(i.Time_Adjust), (40 bytes).
    Removing bsp_rtc.o(i.Time_Display), (268 bytes).
    Removing bsp_rtc.o(i.Time_Regulate_Get), (716 bytes).
    Removing bsp_rtc.o(i.Time_Show), (36 bytes).
    Removing bsp_rtc.o(.conststring), (715 bytes).
    Removing bsp_rtc.o(.data), (160 bytes).
    Removing bsp_date.o(i.GregorianDay), (152 bytes).
    Removing bsp_date.o(i.mktimev), (124 bytes).
    Removing bsp_date.o(i.to_tm), (204 bytes).
    Removing bsp_date.o(.constdata), (48 bytes).
    Removing bsp_date.o(.data), (48 bytes).
    Removing bsp_calendar.o(i.GetChinaCalendar), (520 bytes).
    Removing bsp_calendar.o(i.GetChinaCalendarStr), (296 bytes).
    Removing bsp_calendar.o(i.GetJieQi), (168 bytes).
    Removing bsp_calendar.o(i.GetJieQiStr), (324 bytes).
    Removing bsp_calendar.o(i.GetMoonDay), (288 bytes).
    Removing bsp_calendar.o(i.GetSkyEarth), (56 bytes).
    Removing bsp_calendar.o(i.StrCopy), (24 bytes).
    Removing bsp_calendar.o(.constdata), (814 bytes).
    Removing bsp_calendar.o(.conststring), (335 bytes).
    Removing bsp_calendar.o(.data), (248 bytes).
    Removing qmcx983.o(i.qmcX983_get_orientation), (92 bytes).
    Removing qmcx983.o(i.qmcX983_stop_measure), (12 bytes).
    Removing bsp_spi.o(i.SPI_TIMEOUT_UserCallback), (44 bytes).
    Removing bsp_spi.o(i.Spi_Init), (144 bytes).
    Removing bsp_spi.o(i.Spi_SendByte), (120 bytes).
    Removing bsp_spi.o(i.bmi160_spi_read), (76 bytes).
    Removing bsp_spi.o(i.bmi160_spi_write), (56 bytes).
    Removing bsp_spi.o(i.qmaX981_spi_read), (100 bytes).
    Removing bsp_spi.o(i.qmaX981_spi_write), (80 bytes).
    Removing bsp_spi.o(i.qmp6988_spi_read), (80 bytes).
    Removing bsp_spi.o(i.qmp6988_spi_write), (56 bytes).
    Removing bsp_spi.o(i.qst_fis210x_spi_read), (92 bytes).
    Removing bsp_spi.o(i.qst_fis210x_spi_write), (56 bytes).
    Removing bsp_spi.o(i.qst_fis210x_spi_write_bytes), (38 bytes).
    Removing bsp_spi.o(i.spi_delay), (28 bytes).
    Removing bsp_spi.o(i.spi_struct_config), (144 bytes).
    Removing bsp_spi.o(.data), (4 bytes).
    Removing fis210x.o(i.FisImu_applyAccelerometerOffset), (44 bytes).
    Removing fis210x.o(i.FisImu_applyGyroscopeOffset), (44 bytes).
    Removing fis210x.o(i.FisImu_applyOffsetCalibration), (24 bytes).
    Removing fis210x.o(i.FisImu_enableWakeOnMotion), (90 bytes).
    Removing fis210x.o(i.FisImu_processAccelerometerData), (52 bytes).
    Removing fis210x.o(i.FisImu_processGyroscopeData), (56 bytes).
    Removing fis210x.o(i.FisImu_readTemp), (18 bytes).
    Removing fis210x.o(i.FisImu_read_acc_xyz), (276 bytes).
    Removing fis210x.o(i.FisImu_read_gyro_xyz), (280 bytes).
    Removing fis210x.o(i.FisImu_read_rawsample), (46 bytes).
    Removing fis210x.o(i.FisImu_write_regs), (32 bytes).
    Removing fis210x.o(i.applyScaleFactor), (58 bytes).
    Removing fis210x.o(i.writeCalibrationVectorBuffer), (94 bytes).
    Removing qst_sw_i2c.o(i.jhm1200_iic_read), (66 bytes).
    Removing qst_sw_i2c.o(i.jhm1200_iic_write), (80 bytes).
    Removing qst_sw_i2c.o(i.qst_sw_writeregs), (86 bytes).
    Removing api_711_internal.o(i.BSP_IIC_Read), (20 bytes).
    Removing api_711_internal.o(i.BSP_IIC_Write), (22 bytes).
    Removing api_711_internal.o(i.DelayMs), (24 bytes).
    Removing api_711_internal.o(i.JHM1200_IsBusy), (36 bytes).
    Removing api_711_internal.o(i.JHM1200_get_cal), (392 bytes).
    Removing api_711_internal.o(i.jhm1200_init), (4 bytes).
    Removing api_711_internal.o(.data), (1 bytes).
    Removing virtual_iic.o(i.Check_ACK), (72 bytes).
    Removing virtual_iic.o(i.DelayUs), (16 bytes).
    Removing virtual_iic.o(i.ReceiveByte), (72 bytes).
    Removing virtual_iic.o(i.SendByte), (88 bytes).
    Removing virtual_iic.o(i.Send_ACK), (56 bytes).
    Removing virtual_iic.o(i.Send_NOACK), (48 bytes).
    Removing virtual_iic.o(i.Start), (56 bytes).
    Removing virtual_iic.o(i.Stop), (52 bytes).
    Removing virtual_iic.o(i.Virtual_I2C_DeInit), (2 bytes).
    Removing virtual_iic.o(i.Virtual_I2C_Init), (60 bytes).
    Removing virtual_iic.o(i.Virtual_I2C_Master_Receive), (108 bytes).
    Removing virtual_iic.o(i.Virtual_I2C_Master_Transmit), (116 bytes).
    Removing virtual_iic.o(.bss), (12 bytes).
    Removing fastmath.o(i._Z10FastSinCosfPfS_), (520 bytes).
    Removing fastmath.o(i._Z4ModffPf), (108 bytes).
    Removing fastmath.o(i._Z6FastLnf), (348 bytes).
    Removing fastmath.o(i._Z7FastCosf), (172 bytes).
    Removing fastmath.o(i._Z7FastPowff), (984 bytes).
    Removing fastmath.o(i._Z7FastSinf), (160 bytes).
    Removing fastmath.o(i._Z7FastTanf), (404 bytes).
    Removing fastmath.o(i._Z8FastAsinf), (328 bytes).
    Removing fastmath.o(i._Z9FastAtan2ff), (424 bytes).
    Removing fastmath.o(.ARM.exidx), (8 bytes).
    Removing fastmath.o(.ARM.exidx), (8 bytes).
    Removing fastmath.o(.ARM.exidx), (8 bytes).
    Removing fastmath.o(.ARM.exidx), (8 bytes).
    Removing fastmath.o(.ARM.exidx), (8 bytes).
    Removing fastmath.o(.ARM.exidx), (8 bytes).
    Removing fastmath.o(.ARM.exidx), (8 bytes).
    Removing fastmath.o(.ARM.exidx), (8 bytes).
    Removing fastmath.o(.ARM.exidx), (8 bytes).
    Removing fastmath.o(.ARM.exidx), (8 bytes).
    Removing fastmath.o(.ARM.exidx), (8 bytes).
    Removing fastmath.o(.constdata), (2176 bytes).
    Removing imualgo.o(i.qst_algo_imu_angle), (612 bytes).
    Removing imualgo.o(i.qst_algo_imu_angle2), (468 bytes).
    Removing imualgo.o(i.qst_algo_imu_set_offset), (76 bytes).
    Removing imualgo.o(i.qst_algo_imu_update), (1276 bytes).
    Removing imualgo.o(i.qst_algo_linear_acc), (192 bytes).
    Removing imualgo.o(.ARM.exidx), (8 bytes).
    Removing imualgo.o(.ARM.exidx), (8 bytes).
    Removing imualgo.o(.ARM.exidx), (8 bytes).
    Removing imualgo.o(.ARM.exidx), (8 bytes).
    Removing imualgo.o(.ARM.exidx), (8 bytes).
    Removing imualgo.o(.ARM.exidx), (8 bytes).
    Removing imualgo.o(.ARM.exidx), (8 bytes).
    Removing imualgo.o(.ARM.exidx), (8 bytes).
    Removing imualgo.o(.ARM.exidx), (8 bytes).
    Removing imualgo.o(.ARM.exidx), (8 bytes).
    Removing imualgo.o(.ARM.exidx), (8 bytes).
    Removing ical.o(i.ComputeRR), (324 bytes).
    Removing ical.o(i.getCalibrationFromFile), (120 bytes).
    Removing ical.o(i.get_mag_bias), (112 bytes).
    Removing ical.o(i.get_time_in_nanosec), (6 bytes).
    Removing ical.o(i.ical_clearFarPoint2), (272 bytes).
    Removing ical.o(i.mcal), (196 bytes).
    Removing qst_packet.o(i.qst_print_log), (200 bytes).
    Removing qst_packet.o(i.qst_putchar), (36 bytes).
    Removing qst_packet.o(i.qst_send_data), (404 bytes).
    Removing qst_packet.o(i.qst_send_imu_euler), (368 bytes).
    Removing qst_packet.o(i.qst_send_imu_quat), (186 bytes).
    Removing qst_packet.o(i.qst_send_imu_rawdata), (336 bytes).
    Removing qst_packet.o(.bss), (50 bytes).
    Removing ffltul.o(.text), (28 bytes).
    Removing dfltui.o(.text), (26 bytes).
    Removing ffixui.o(.text), (40 bytes).
    Removing dfixi.o(.text), (62 bytes).
    Removing imualgo.o(i._ZSt5atan2ff), (16 bytes).
    Removing imualgo.o(.ARM.exidx), (8 bytes).

593 unused section(s) (total 40776 bytes) removed from the image.

==============================================================================

Image Symbol Table

    Local Symbols

    Symbol Name                              Value     Ov Type        Size  Object(Section)

    ../clib/../cmprslib/zerorunl2.c          0x00000000   Number         0  __dczerorl2.o ABSOLUTE
    ../clib/microlib/ctype/ctype.c           0x00000000   Number         0  isspace_c.o ABSOLUTE
    ../clib/microlib/ctype/ctype.c           0x00000000   Number         0  ctype_c.o ABSOLUTE
    ../clib/microlib/division.c              0x00000000   Number         0  uidiv.o ABSOLUTE
    ../clib/microlib/division.c              0x00000000   Number         0  uldiv.o ABSOLUTE
    ../clib/microlib/division.c              0x00000000   Number         0  ldiv.o ABSOLUTE
    ../clib/microlib/errno.c                 0x00000000   Number         0  errno.o ABSOLUTE
    ../clib/microlib/init/entry.s            0x00000000   Number         0  entry2.o ABSOLUTE
    ../clib/microlib/init/entry.s            0x00000000   Number         0  entry.o ABSOLUTE
    ../clib/microlib/init/entry.s            0x00000000   Number         0  entry7a.o ABSOLUTE
    ../clib/microlib/init/entry.s            0x00000000   Number         0  entry11b.o ABSOLUTE
    ../clib/microlib/init/entry.s            0x00000000   Number         0  entry8b.o ABSOLUTE
    ../clib/microlib/init/entry.s            0x00000000   Number         0  entry7b.o ABSOLUTE
    ../clib/microlib/init/entry.s            0x00000000   Number         0  entry11a.o ABSOLUTE
    ../clib/microlib/init/entry.s            0x00000000   Number         0  entry10b.o ABSOLUTE
    ../clib/microlib/init/entry.s            0x00000000   Number         0  entry10a.o ABSOLUTE
    ../clib/microlib/init/entry.s            0x00000000   Number         0  entry9b.o ABSOLUTE
    ../clib/microlib/init/entry.s            0x00000000   Number         0  entry9a.o ABSOLUTE
    ../clib/microlib/init/entry.s            0x00000000   Number         0  entry8a.o ABSOLUTE
    ../clib/microlib/init/entry.s            0x00000000   Number         0  entry5.o ABSOLUTE
    ../clib/microlib/longlong.c              0x00000000   Number         0  llshl.o ABSOLUTE
    ../clib/microlib/longlong.c              0x00000000   Number         0  llushr.o ABSOLUTE
    ../clib/microlib/longlong.c              0x00000000   Number         0  llsshr.o ABSOLUTE
    ../clib/microlib/printf/printf.c         0x00000000   Number         0  printf4.o ABSOLUTE
    ../clib/microlib/printf/printf.c         0x00000000   Number         0  printf5.o ABSOLUTE
    ../clib/microlib/printf/printf.c         0x00000000   Number         0  printf3.o ABSOLUTE
    ../clib/microlib/printf/printf.c         0x00000000   Number         0  printf6.o ABSOLUTE
    ../clib/microlib/printf/printf.c         0x00000000   Number         0  printf7.o ABSOLUTE
    ../clib/microlib/printf/printf.c         0x00000000   Number         0  printf8.o ABSOLUTE
    ../clib/microlib/printf/printf.c         0x00000000   Number         0  printfa.o ABSOLUTE
    ../clib/microlib/printf/printf.c         0x00000000   Number         0  printf2.o ABSOLUTE
    ../clib/microlib/printf/printf.c         0x00000000   Number         0  printf1.o ABSOLUTE
    ../clib/microlib/printf/printf.c         0x00000000   Number         0  printf0.o ABSOLUTE
    ../clib/microlib/printf/printf.c         0x00000000   Number         0  printfb.o ABSOLUTE
    ../clib/microlib/printf/stubs.s          0x00000000   Number         0  stubs.o ABSOLUTE
    ../clib/microlib/stdio/fclose.c          0x00000000   Number         0  fclose.o ABSOLUTE
    ../clib/microlib/stdio/fgetc.c           0x00000000   Number         0  fgetc_b.o ABSOLUTE
    ../clib/microlib/stdio/fopen.c           0x00000000   Number         0  fopen.o ABSOLUTE
    ../clib/microlib/stdio/semi.s            0x00000000   Number         0  semi.o ABSOLUTE
    ../clib/microlib/stdio/streams.c         0x00000000   Number         0  stdout.o ABSOLUTE
    ../clib/microlib/stdio/streams.c         0x00000000   Number         0  stdin.o ABSOLUTE
    ../clib/microlib/string/memcpy.c         0x00000000   Number         0  memcpya.o ABSOLUTE
    ../clib/microlib/string/memcpy.c         0x00000000   Number         0  memcpyb.o ABSOLUTE
    ../clib/microlib/string/memset.c         0x00000000   Number         0  memseta.o ABSOLUTE
    ../clib/microlib/stubs.s                 0x00000000   Number         0  iusefp.o ABSOLUTE
    ../clib/microlib/stubs.s                 0x00000000   Number         0  iusesemig.o ABSOLUTE
    ../clib/scanf.c                          0x00000000   Number         0  _scanf_int.o ABSOLUTE
    ../clib/scanf.c                          0x00000000   Number         0  __0scanf.o ABSOLUTE
    ../clib/scanf.c                          0x00000000   Number         0  _scanf.o ABSOLUTE
    ../clib/scanf.c                          0x00000000   Number         0  scanf_char.o ABSOLUTE
    ../clib/scanf.c                          0x00000000   Number         0  _chval.o ABSOLUTE
    ../clib/scanf.c                          0x00000000   Number         0  scanf_char_file.o ABSOLUTE
    ../clib/scanf.c                          0x00000000   Number         0  __0fscanf.o ABSOLUTE
    ../fplib/microlib/d2f.c                  0x00000000   Number         0  d2f.o ABSOLUTE
    ../fplib/microlib/f2d.c                  0x00000000   Number         0  f2d.o ABSOLUTE
    ../fplib/microlib/fpadd.c                0x00000000   Number         0  fadd.o ABSOLUTE
    ../fplib/microlib/fpadd.c                0x00000000   Number         0  dadd.o ABSOLUTE
    ../fplib/microlib/fpdiv.c                0x00000000   Number         0  ddiv.o ABSOLUTE
    ../fplib/microlib/fpdiv.c                0x00000000   Number         0  fdiv.o ABSOLUTE
    ../fplib/microlib/fpepilogue.c           0x00000000   Number         0  depilogue.o ABSOLUTE
    ../fplib/microlib/fpepilogue.c           0x00000000   Number         0  fepilogue.o ABSOLUTE
    ../fplib/microlib/fpfix.c                0x00000000   Number         0  ffixui.o ABSOLUTE
    ../fplib/microlib/fpfix.c                0x00000000   Number         0  ffixi.o ABSOLUTE
    ../fplib/microlib/fpfix.c                0x00000000   Number         0  dfixi.o ABSOLUTE
    ../fplib/microlib/fpfix.c                0x00000000   Number         0  dfixul.o ABSOLUTE
    ../fplib/microlib/fpflt.c                0x00000000   Number         0  ffltul.o ABSOLUTE
    ../fplib/microlib/fpflt.c                0x00000000   Number         0  dflti.o ABSOLUTE
    ../fplib/microlib/fpflt.c                0x00000000   Number         0  dfltui.o ABSOLUTE
    ../fplib/microlib/fpflt.c                0x00000000   Number         0  fflti.o ABSOLUTE
    ../fplib/microlib/fpflt.c                0x00000000   Number         0  ffltui.o ABSOLUTE
    ../fplib/microlib/fpmul.c                0x00000000   Number         0  dmul.o ABSOLUTE
    ../fplib/microlib/fpmul.c                0x00000000   Number         0  fmul.o ABSOLUTE
    ../fplib/microlib/fprnd.c                0x00000000   Number         0  frnd.o ABSOLUTE
    ../fplib/microlib/fpscalb.c              0x00000000   Number         0  dscalb.o ABSOLUTE
    ../fplib/microlib/fpscalb.c              0x00000000   Number         0  fscalb.o ABSOLUTE
    ../fplib/microlib/fpsqrt.c               0x00000000   Number         0  dsqrt.o ABSOLUTE
    ../fplib/microlib/fpsqrt.c               0x00000000   Number         0  fsqrt.o ABSOLUTE
    ../mathlib/asinf.c                       0x00000000   Number         0  asinf.o ABSOLUTE
    ../mathlib/asinf.c                       0x00000000   Number         0  asinf_x.o ABSOLUTE
    ../mathlib/atan.c                        0x00000000   Number         0  atan.o ABSOLUTE
    ../mathlib/atan.c                        0x00000000   Number         0  atan_x.o ABSOLUTE
    ../mathlib/atan2.c                       0x00000000   Number         0  atan2_x.o ABSOLUTE
    ../mathlib/atan2.c                       0x00000000   Number         0  atan2.o ABSOLUTE
    ../mathlib/atan2f.c                      0x00000000   Number         0  atan2f.o ABSOLUTE
    ../mathlib/atan2f.c                      0x00000000   Number         0  atan2f_x.o ABSOLUTE
    ../mathlib/cosf.c                        0x00000000   Number         0  cosf_x.o ABSOLUTE
    ../mathlib/cosf.c                        0x00000000   Number         0  cosf.o ABSOLUTE
    ../mathlib/dunder.c                      0x00000000   Number         0  dunder.o ABSOLUTE
    ../mathlib/fpclassify.c                  0x00000000   Number         0  fpclassify.o ABSOLUTE
    ../mathlib/fpclassifyf.c                 0x00000000   Number         0  fpclassifyf.o ABSOLUTE
    ../mathlib/funder.c                      0x00000000   Number         0  funder.o ABSOLUTE
    ../mathlib/poly.c                        0x00000000   Number         0  poly.o ABSOLUTE
    ../mathlib/pow.c                         0x00000000   Number         0  pow.o ABSOLUTE
    ../mathlib/pow.c                         0x00000000   Number         0  pow_x.o ABSOLUTE
    ../mathlib/qnan.c                        0x00000000   Number         0  qnan.o ABSOLUTE
    ../mathlib/round.c                       0x00000000   Number         0  roundf.o ABSOLUTE
    ../mathlib/rredf.c                       0x00000000   Number         0  rredf.o ABSOLUTE
    ../mathlib/sinf.c                        0x00000000   Number         0  sinf_x.o ABSOLUTE
    ../mathlib/sinf.c                        0x00000000   Number         0  sinf.o ABSOLUTE
    ../mathlib/sqrt.c                        0x00000000   Number         0  sqrt.o ABSOLUTE
    ../mathlib/sqrt.c                        0x00000000   Number         0  sqrt_x.o ABSOLUTE
    ../mathlib/sqrtf.c                       0x00000000   Number         0  sqrtf_x.o ABSOLUTE
    ../mathlib/sqrtf.c                       0x00000000   Number         0  sqrtf.o ABSOLUTE
    ..\..\Libraries\CMSIS\core_cm3.c         0x00000000   Number         0  core_cm3.o ABSOLUTE
    ..\..\Libraries\CMSIS\startup\startup_stm32f10x_md.s 0x00000000   Number         0  startup_stm32f10x_md.o ABSOLUTE
    ..\..\Libraries\CMSIS\system_stm32f10x.c 0x00000000   Number         0  system_stm32f10x.o ABSOLUTE
    ..\..\Libraries\FWlib\src\misc.c         0x00000000   Number         0  misc.o ABSOLUTE
    ..\..\Libraries\FWlib\src\stm32f10x_adc.c 0x00000000   Number         0  stm32f10x_adc.o ABSOLUTE
    ..\..\Libraries\FWlib\src\stm32f10x_bkp.c 0x00000000   Number         0  stm32f10x_bkp.o ABSOLUTE
    ..\..\Libraries\FWlib\src\stm32f10x_can.c 0x00000000   Number         0  stm32f10x_can.o ABSOLUTE
    ..\..\Libraries\FWlib\src\stm32f10x_cec.c 0x00000000   Number         0  stm32f10x_cec.o ABSOLUTE
    ..\..\Libraries\FWlib\src\stm32f10x_crc.c 0x00000000   Number         0  stm32f10x_crc.o ABSOLUTE
    ..\..\Libraries\FWlib\src\stm32f10x_dac.c 0x00000000   Number         0  stm32f10x_dac.o ABSOLUTE
    ..\..\Libraries\FWlib\src\stm32f10x_dbgmcu.c 0x00000000   Number         0  stm32f10x_dbgmcu.o ABSOLUTE
    ..\..\Libraries\FWlib\src\stm32f10x_dma.c 0x00000000   Number         0  stm32f10x_dma.o ABSOLUTE
    ..\..\Libraries\FWlib\src\stm32f10x_exti.c 0x00000000   Number         0  stm32f10x_exti.o ABSOLUTE
    ..\..\Libraries\FWlib\src\stm32f10x_flash.c 0x00000000   Number         0  stm32f10x_flash.o ABSOLUTE
    ..\..\Libraries\FWlib\src\stm32f10x_fsmc.c 0x00000000   Number         0  stm32f10x_fsmc.o ABSOLUTE
    ..\..\Libraries\FWlib\src\stm32f10x_gpio.c 0x00000000   Number         0  stm32f10x_gpio.o ABSOLUTE
    ..\..\Libraries\FWlib\src\stm32f10x_i2c.c 0x00000000   Number         0  stm32f10x_i2c.o ABSOLUTE
    ..\..\Libraries\FWlib\src\stm32f10x_iwdg.c 0x00000000   Number         0  stm32f10x_iwdg.o ABSOLUTE
    ..\..\Libraries\FWlib\src\stm32f10x_pwr.c 0x00000000   Number         0  stm32f10x_pwr.o ABSOLUTE
    ..\..\Libraries\FWlib\src\stm32f10x_rcc.c 0x00000000   Number         0  stm32f10x_rcc.o ABSOLUTE
    ..\..\Libraries\FWlib\src\stm32f10x_rtc.c 0x00000000   Number         0  stm32f10x_rtc.o ABSOLUTE
    ..\..\Libraries\FWlib\src\stm32f10x_sdio.c 0x00000000   Number         0  stm32f10x_sdio.o ABSOLUTE
    ..\..\Libraries\FWlib\src\stm32f10x_spi.c 0x00000000   Number         0  stm32f10x_spi.o ABSOLUTE
    ..\..\Libraries\FWlib\src\stm32f10x_tim.c 0x00000000   Number         0  stm32f10x_tim.o ABSOLUTE
    ..\..\Libraries\FWlib\src\stm32f10x_usart.c 0x00000000   Number         0  stm32f10x_usart.o ABSOLUTE
    ..\..\Libraries\FWlib\src\stm32f10x_wwdg.c 0x00000000   Number         0  stm32f10x_wwdg.o ABSOLUTE
    ..\..\User\Led\bsp_led.c                 0x00000000   Number         0  bsp_led.o ABSOLUTE
    ..\..\User\SysTick\bsp_SysTick.c         0x00000000   Number         0  bsp_systick.o ABSOLUTE
    ..\..\User\fis210x\fis210x.c             0x00000000   Number         0  fis210x.o ABSOLUTE
    ..\..\User\i2c\bsp_i2c.c                 0x00000000   Number         0  bsp_i2c.o ABSOLUTE
    ..\..\User\i2c\qst_sw_i2c.c              0x00000000   Number         0  qst_sw_i2c.o ABSOLUTE
    ..\..\User\jhm1200\api_711_internal.c    0x00000000   Number         0  api_711_internal.o ABSOLUTE
    ..\..\User\jhm1200\virtual_iic.c         0x00000000   Number         0  virtual_iic.o ABSOLUTE
    ..\..\User\main.c                        0x00000000   Number         0  main.o ABSOLUTE
    ..\..\User\qmaX981\qmaX981.c             0x00000000   Number         0  qmax981.o ABSOLUTE
    ..\..\User\qmaX981\qmaX981_algo.c        0x00000000   Number         0  qmax981_algo.o ABSOLUTE
    ..\..\User\qmc6308\qmc6308.c             0x00000000   Number         0  qmc6308.o ABSOLUTE
    ..\..\User\qmcX983\qmcX983.c             0x00000000   Number         0  qmcx983.o ABSOLUTE
    ..\..\User\qmp6988\qmp6988.c             0x00000000   Number         0  qmp6988.o ABSOLUTE
    ..\..\User\rtc\bsp_calendar.c            0x00000000   Number         0  bsp_calendar.o ABSOLUTE
    ..\..\User\rtc\bsp_date.c                0x00000000   Number         0  bsp_date.o ABSOLUTE
    ..\..\User\rtc\bsp_rtc.c                 0x00000000   Number         0  bsp_rtc.o ABSOLUTE
    ..\..\User\spi\bsp_spi.c                 0x00000000   Number         0  bsp_spi.o ABSOLUTE
    ..\..\User\stm32f10x_it.c                0x00000000   Number         0  stm32f10x_it.o ABSOLUTE
    ..\..\User\usart\bsp_usart.c             0x00000000   Number         0  bsp_usart.o ABSOLUTE
    ..\..\algo\compass\ical.c                0x00000000   Number         0  ical.o ABSOLUTE
    ..\..\algo\imu\FastMath.cpp              0x00000000   Number         0  fastmath.o ABSOLUTE
    ..\..\algo\imu\imualgo.cpp               0x00000000   Number         0  imualgo.o ABSOLUTE
    ..\..\upper\qst_packet.c                 0x00000000   Number         0  qst_packet.o ABSOLUTE
    ..\\..\\Libraries\\CMSIS\\core_cm3.c     0x00000000   Number         0  core_cm3.o ABSOLUTE
    cdcmple.s                                0x00000000   Number         0  cdcmple.o ABSOLUTE
    cdrcmple.s                               0x00000000   Number         0  cdrcmple.o ABSOLUTE
    cfcmple.s                                0x00000000   Number         0  cfcmple.o ABSOLUTE
    cfrcmple.s                               0x00000000   Number         0  cfrcmple.o ABSOLUTE
    dc.s                                     0x00000000   Number         0  dc.o ABSOLUTE
    handlers.s                               0x00000000   Number         0  handlers.o ABSOLUTE
    init.s                                   0x00000000   Number         0  init.o ABSOLUTE
    RESET                                    0x08000000   Section      236  startup_stm32f10x_md.o(RESET)
    .ARM.Collect$$$$00000000                 0x080000ec   Section        0  entry.o(.ARM.Collect$$$$00000000)
    .ARM.Collect$$$$00000001                 0x080000ec   Section        4  entry2.o(.ARM.Collect$$$$00000001)
    .ARM.Collect$$$$00000004                 0x080000f0   Section        4  entry5.o(.ARM.Collect$$$$00000004)
    .ARM.Collect$$$$00000008                 0x080000f4   Section        0  entry7b.o(.ARM.Collect$$$$00000008)
    .ARM.Collect$$$$0000000A                 0x080000f4   Section        0  entry8b.o(.ARM.Collect$$$$0000000A)
    .ARM.Collect$$$$0000000B                 0x080000f4   Section        8  entry9a.o(.ARM.Collect$$$$0000000B)
    .ARM.Collect$$$$0000000D                 0x080000fc   Section        0  entry10a.o(.ARM.Collect$$$$0000000D)
    .ARM.Collect$$$$0000000F                 0x080000fc   Section        0  entry11a.o(.ARM.Collect$$$$0000000F)
    .ARM.Collect$$$$00002712                 0x080000fc   Section        4  entry2.o(.ARM.Collect$$$$00002712)
    __lit__00000000                          0x080000fc   Data           4  entry2.o(.ARM.Collect$$$$00002712)
    .text                                    0x08000100   Section       36  startup_stm32f10x_md.o(.text)
    .text                                    0x08000124   Section        0  ldiv.o(.text)
    .text                                    0x08000186   Section        0  memcpya.o(.text)
    .text                                    0x080001aa   Section        0  memseta.o(.text)
    .text                                    0x080001ce   Section        0  fadd.o(.text)
    .text                                    0x0800027e   Section        0  fmul.o(.text)
    .text                                    0x080002e2   Section        0  fdiv.o(.text)
    .text                                    0x0800035e   Section        0  dadd.o(.text)
    .text                                    0x080004ac   Section        0  dmul.o(.text)
    .text                                    0x08000590   Section        0  ddiv.o(.text)
    .text                                    0x0800066e   Section        0  fflti.o(.text)
    .text                                    0x08000680   Section        0  ffltui.o(.text)
    .text                                    0x0800068a   Section        0  dflti.o(.text)
    .text                                    0x080006ac   Section        0  ffixi.o(.text)
    .text                                    0x080006de   Section        0  f2d.o(.text)
    .text                                    0x08000704   Section       48  cdcmple.o(.text)
    .text                                    0x08000734   Section       48  cdrcmple.o(.text)
    .text                                    0x08000764   Section        0  d2f.o(.text)
    .text                                    0x0800079c   Section       20  cfcmple.o(.text)
    .text                                    0x080007b0   Section       20  cfrcmple.o(.text)
    .text                                    0x080007c4   Section        0  uidiv.o(.text)
    .text                                    0x080007f0   Section        0  uldiv.o(.text)
    .text                                    0x08000852   Section        0  llshl.o(.text)
    .text                                    0x08000870   Section        0  llushr.o(.text)
    .text                                    0x08000890   Section        0  llsshr.o(.text)
    .text                                    0x080008b4   Section        0  iusefp.o(.text)
    .text                                    0x080008b4   Section        0  fepilogue.o(.text)
    .text                                    0x08000922   Section        0  fscalb.o(.text)
    .text                                    0x0800093a   Section        0  fsqrt.o(.text)
    .text                                    0x08000998   Section        0  frnd.o(.text)
    .text                                    0x080009d4   Section        0  depilogue.o(.text)
    .text                                    0x08000a8e   Section        0  dscalb.o(.text)
    .text                                    0x08000abc   Section        0  dfixul.o(.text)
    .text                                    0x08000aec   Section       36  init.o(.text)
    .text                                    0x08000b10   Section        0  dsqrt.o(.text)
    .text                                    0x08000bb2   Section        0  __dczerorl2.o(.text)
    i.BusFault_Handler                       0x08000c08   Section        0  stm32f10x_it.o(i.BusFault_Handler)
    i.DebugMon_Handler                       0x08000c0c   Section        0  stm32f10x_it.o(i.DebugMon_Handler)
    i.EXTI15_10_IRQHandler                   0x08000c10   Section        0  main.o(i.EXTI15_10_IRQHandler)
    i.EXTI4_IRQHandler                       0x08000c30   Section        0  main.o(i.EXTI4_IRQHandler)
    i.EXTI9_5_IRQHandler                     0x08000c4c   Section        0  main.o(i.EXTI9_5_IRQHandler)
    i.EXTI_ClearITPendingBit                 0x08000c80   Section        0  stm32f10x_exti.o(i.EXTI_ClearITPendingBit)
    i.EXTI_GetITStatus                       0x08000c8c   Section        0  stm32f10x_exti.o(i.EXTI_GetITStatus)
    i.EXTI_Init                              0x08000cb4   Section        0  stm32f10x_exti.o(i.EXTI_Init)
    i.Filter_Acc                             0x08000d48   Section        0  ical.o(i.Filter_Acc)
    i.Filter_Mag                             0x08000e10   Section        0  ical.o(i.Filter_Mag)
    i.Filter_Ori                             0x08000edc   Section        0  ical.o(i.Filter_Ori)
    i.FisImu_Config_apply                    0x08001028   Section        0  fis210x.o(i.FisImu_Config_apply)
    i.FisImu_config_acc                      0x0800107c   Section        0  fis210x.o(i.FisImu_config_acc)
    i.FisImu_config_ae                       0x08001114   Section        0  fis210x.o(i.FisImu_config_ae)
    i.FisImu_config_gyro                     0x0800113c   Section        0  fis210x.o(i.FisImu_config_gyro)
    i.FisImu_config_mag                      0x080011f8   Section        0  fis210x.o(i.FisImu_config_mag)
    i.FisImu_disableWakeOnMotion             0x080011fa   Section        0  fis210x.o(i.FisImu_disableWakeOnMotion)
    i.FisImu_doCtrl9Command                  0x08001212   Section        0  fis210x.o(i.FisImu_doCtrl9Command)
    i.FisImu_enableSensors                   0x08001286   Section        0  fis210x.o(i.FisImu_enableSensors)
    i.FisImu_init                            0x080012a0   Section        0  fis210x.o(i.FisImu_init)
    i.FisImu_readStatus0                     0x08001418   Section        0  fis210x.o(i.FisImu_readStatus0)
    i.FisImu_readStatus1                     0x0800142a   Section        0  fis210x.o(i.FisImu_readStatus1)
    i.FisImu_read_reg                        0x0800143c   Section        0  fis210x.o(i.FisImu_read_reg)
    i.FisImu_read_xyz                        0x0800145c   Section        0  fis210x.o(i.FisImu_read_xyz)
    i.FisImu_read_xyz_raw                    0x0800168c   Section        0  fis210x.o(i.FisImu_read_xyz_raw)
    i.FisImu_set_layout                      0x0800170c   Section        0  fis210x.o(i.FisImu_set_layout)
    i.FisImu_write_reg                       0x08001828   Section        0  fis210x.o(i.FisImu_write_reg)
    i.GPIO_EXTILineConfig                    0x08001840   Section        0  stm32f10x_gpio.o(i.GPIO_EXTILineConfig)
    i.GPIO_Init                              0x08001880   Section        0  stm32f10x_gpio.o(i.GPIO_Init)
    i.GPIO_ResetBits                         0x08001996   Section        0  stm32f10x_gpio.o(i.GPIO_ResetBits)
    i.GPIO_SetBits                           0x0800199a   Section        0  stm32f10x_gpio.o(i.GPIO_SetBits)
    i.HAL_GetTick                            0x080019a0   Section        0  bsp_systick.o(i.HAL_GetTick)
    i.HAL_IncTick                            0x080019ac   Section        0  bsp_systick.o(i.HAL_IncTick)
    i.HardFault_Handler                      0x080019d8   Section        0  stm32f10x_it.o(i.HardFault_Handler)
    i.InvSqrt                                0x080019dc   Section        0  ical.o(i.InvSqrt)
    i.MemManage_Handler                      0x08001a78   Section        0  stm32f10x_it.o(i.MemManage_Handler)
    i.NMI_Handler                            0x08001a7c   Section        0  stm32f10x_it.o(i.NMI_Handler)
    i.NVIC_Init                              0x08001a80   Section        0  misc.o(i.NVIC_Init)
    i.NVIC_PriorityGroupConfig               0x08001af0   Section        0  misc.o(i.NVIC_PriorityGroupConfig)
    i.PWR_EnterSTOPMode                      0x08001b04   Section        0  stm32f10x_pwr.o(i.PWR_EnterSTOPMode)
    i.PendSV_Handler                         0x08001b44   Section        0  stm32f10x_it.o(i.PendSV_Handler)
    i.RCC_APB1PeriphClockCmd                 0x08001b48   Section        0  stm32f10x_rcc.o(i.RCC_APB1PeriphClockCmd)
    i.RCC_APB2PeriphClockCmd                 0x08001b68   Section        0  stm32f10x_rcc.o(i.RCC_APB2PeriphClockCmd)
    i.RCC_DeInit                             0x08001b88   Section        0  stm32f10x_rcc.o(i.RCC_DeInit)
    i.RCC_GetClocksFreq                      0x08001bd4   Section        0  stm32f10x_rcc.o(i.RCC_GetClocksFreq)
    i.RCC_GetFlagStatus                      0x08001ca8   Section        0  stm32f10x_rcc.o(i.RCC_GetFlagStatus)
    i.RCC_GetSYSCLKSource                    0x08001ce4   Section        0  stm32f10x_rcc.o(i.RCC_GetSYSCLKSource)
    i.RCC_HCLKConfig                         0x08001cf4   Section        0  stm32f10x_rcc.o(i.RCC_HCLKConfig)
    i.RCC_HSEConfig                          0x08001d0c   Section        0  stm32f10x_rcc.o(i.RCC_HSEConfig)
    i.RCC_PCLK1Config                        0x08001d58   Section        0  stm32f10x_rcc.o(i.RCC_PCLK1Config)
    i.RCC_PCLK2Config                        0x08001d70   Section        0  stm32f10x_rcc.o(i.RCC_PCLK2Config)
    i.RCC_PLLCmd                             0x08001d88   Section        0  stm32f10x_rcc.o(i.RCC_PLLCmd)
    i.RCC_PLLConfig                          0x08001d94   Section        0  stm32f10x_rcc.o(i.RCC_PLLConfig)
    i.RCC_SYSCLKConfig                       0x08001db0   Section        0  stm32f10x_rcc.o(i.RCC_SYSCLKConfig)
    i.RCC_WaitForHSEStartUp                  0x08001dc8   Section        0  stm32f10x_rcc.o(i.RCC_WaitForHSEStartUp)
    i.SVC_Handler                            0x08001e00   Section        0  stm32f10x_it.o(i.SVC_Handler)
    i.SYSCLK_Config_WakeUp                   0x08001e02   Section        0  main.o(i.SYSCLK_Config_WakeUp)
    SYSCLK_Config_WakeUp                     0x08001e03   Thumb Code    86  main.o(i.SYSCLK_Config_WakeUp)
    i.SetSysClock                            0x08001e58   Section        0  system_stm32f10x.o(i.SetSysClock)
    SetSysClock                              0x08001e59   Thumb Code     8  system_stm32f10x.o(i.SetSysClock)
    i.SetSysClockTo72                        0x08001e60   Section        0  system_stm32f10x.o(i.SetSysClockTo72)
    SetSysClockTo72                          0x08001e61   Thumb Code   214  system_stm32f10x.o(i.SetSysClockTo72)
    i.Set_Picth_Roll                         0x08001f40   Section        0  ical.o(i.Set_Picth_Roll)
    i.SysTick_Enable                         0x08001f58   Section        0  bsp_systick.o(i.SysTick_Enable)
    i.SysTick_Handler                        0x08001f7e   Section        0  stm32f10x_it.o(i.SysTick_Handler)
    i.SysTick_Init                           0x08001f88   Section        0  bsp_systick.o(i.SysTick_Init)
    i.SystemInit                             0x08002000   Section        0  system_stm32f10x.o(i.SystemInit)
    i.TIM2_IRQHandler                        0x08002060   Section        0  main.o(i.TIM2_IRQHandler)
    i.TIM_ClearITPendingBit                  0x0800207a   Section        0  stm32f10x_tim.o(i.TIM_ClearITPendingBit)
    i.TIM_GetITStatus                        0x08002080   Section        0  stm32f10x_tim.o(i.TIM_GetITStatus)
    i.USART_Cmd                              0x080020a2   Section        0  stm32f10x_usart.o(i.USART_Cmd)
    i.USART_Config                           0x080020bc   Section        0  bsp_usart.o(i.USART_Config)
    i.USART_GetFlagStatus                    0x08002138   Section        0  stm32f10x_usart.o(i.USART_GetFlagStatus)
    i.USART_Init                             0x08002154   Section        0  stm32f10x_usart.o(i.USART_Init)
    i.USART_SendData                         0x0800222c   Section        0  stm32f10x_usart.o(i.USART_SendData)
    i.UsageFault_Handler                     0x08002234   Section        0  stm32f10x_it.o(i.UsageFault_Handler)
    i._Z20qst_algo_gravity_accPf             0x08002238   Section        0  imualgo.o(i._Z20qst_algo_gravity_accPf)
    i._Z7qmemsetPvci                         0x080022e0   Section        0  imualgo.o(i._Z7qmemsetPvci)
    i._Z8FastSqrtf                           0x080022f4   Section        0  fastmath.o(i._Z8FastSqrtf)
    i._Z9FastSqrtIf                          0x08002308   Section        0  fastmath.o(i._Z9FastSqrtIf)
    i.__0fprintf                             0x08002354   Section        0  printfa.o(i.__0fprintf)
    i.__0printf                              0x08002370   Section        0  printfa.o(i.__0printf)
    i.__ARM_fpclassify                       0x08002390   Section        0  fpclassify.o(i.__ARM_fpclassify)
    i.__ARM_fpclassifyf                      0x080023b8   Section        0  fpclassifyf.o(i.__ARM_fpclassifyf)
    i.__kernel_poly                          0x080023de   Section        0  poly.o(i.__kernel_poly)
    i.__mathlib_dbl_divzero                  0x08002488   Section        0  dunder.o(i.__mathlib_dbl_divzero)
    i.__mathlib_dbl_infnan                   0x08002498   Section        0  dunder.o(i.__mathlib_dbl_infnan)
    i.__mathlib_dbl_infnan2                  0x0800249e   Section        0  dunder.o(i.__mathlib_dbl_infnan2)
    i.__mathlib_dbl_invalid                  0x080024a2   Section        0  dunder.o(i.__mathlib_dbl_invalid)
    i.__mathlib_dbl_overflow                 0x080024ae   Section        0  dunder.o(i.__mathlib_dbl_overflow)
    i.__mathlib_dbl_underflow                0x080024bc   Section        0  dunder.o(i.__mathlib_dbl_underflow)
    i.__mathlib_flt_infnan                   0x080024cc   Section        0  funder.o(i.__mathlib_flt_infnan)
    i.__mathlib_flt_invalid                  0x080024d2   Section        0  funder.o(i.__mathlib_flt_invalid)
    i.__mathlib_flt_underflow                0x080024da   Section        0  funder.o(i.__mathlib_flt_underflow)
    i.__mathlib_rredf2                       0x080024e4   Section        0  rredf.o(i.__mathlib_rredf2)
    i.__scatterload_copy                     0x0800264c   Section       14  handlers.o(i.__scatterload_copy)
    i.__scatterload_null                     0x0800265a   Section        2  handlers.o(i.__scatterload_null)
    i.__scatterload_zeroinit                 0x0800265c   Section       14  handlers.o(i.__scatterload_zeroinit)
    i.__set_errno                            0x0800266c   Section        0  errno.o(i.__set_errno)
    i._fp_digits                             0x08002678   Section        0  printfa.o(i._fp_digits)
    _fp_digits                               0x08002679   Thumb Code   366  printfa.o(i._fp_digits)
    i._printf_core                           0x080027fc   Section        0  printfa.o(i._printf_core)
    _printf_core                             0x080027fd   Thumb Code  1744  printfa.o(i._printf_core)
    i._printf_post_padding                   0x08002ed8   Section        0  printfa.o(i._printf_post_padding)
    _printf_post_padding                     0x08002ed9   Thumb Code    36  printfa.o(i._printf_post_padding)
    i._printf_pre_padding                    0x08002efc   Section        0  printfa.o(i._printf_pre_padding)
    _printf_pre_padding                      0x08002efd   Thumb Code    46  printfa.o(i._printf_pre_padding)
    i.acc_int1_callback                      0x08002f2c   Section        0  main.o(i.acc_int1_callback)
    acc_int1_callback                        0x08002f2d   Thumb Code    14  main.o(i.acc_int1_callback)
    i.acc_int2_callback                      0x08002f40   Section        0  main.o(i.acc_int2_callback)
    acc_int2_callback                        0x08002f41   Thumb Code    14  main.o(i.acc_int2_callback)
    i.acc_process_irq                        0x08002f54   Section        0  main.o(i.acc_process_irq)
    acc_process_irq                          0x08002f55   Thumb Code    48  main.o(i.acc_process_irq)
    i.acc_setup_irq                          0x08002f88   Section        0  main.o(i.acc_setup_irq)
    acc_setup_irq                            0x08002f89   Thumb Code   222  main.o(i.acc_setup_irq)
    i.asinf                                  0x08003078   Section        0  asinf.o(i.asinf)
    i.atan                                   0x0800319c   Section        0  atan.o(i.atan)
    i.atan2                                  0x080033bc   Section        0  atan2.o(i.atan2)
    i.bsp_gpio_config                        0x0800353c   Section        0  main.o(i.bsp_gpio_config)
    i.checkAccuracy                          0x080035d4   Section        0  ical.o(i.checkAccuracy)
    i.clear_offset                           0x08003674   Section        0  ical.o(i.clear_offset)
    i.cosf                                   0x08003680   Section        0  cosf.o(i.cosf)
    i.delay_us                               0x080037fc   Section        0  qst_sw_i2c.o(i.delay_us)
    i.em_JTJ                                 0x08003880   Section        0  ical.o(i.em_JTJ)
    i.em_JTJinvJK                            0x080038f8   Section        0  ical.o(i.em_JTJinvJK)
    i.em_JTK                                 0x08003950   Section        0  ical.o(i.em_JTK)
    i.em_average                             0x08003998   Section        0  ical.o(i.em_average)
    i.em_center                              0x08003a30   Section        0  ical.o(i.em_center)
    i.em_demean                              0x08003a94   Section        0  ical.o(i.em_demean)
    i.em_invert                              0x08003af0   Section        0  ical.o(i.em_invert)
    i.em_moveData                            0x08003c30   Section        0  ical.o(i.em_moveData)
    i.em_prepare_data                        0x08003c68   Section        0  ical.o(i.em_prepare_data)
    i.em_restore_data                        0x08003d4c   Section        0  ical.o(i.em_restore_data)
    i.em_results                             0x08003e1c   Section        0  ical.o(i.em_results)
    i.fputc                                  0x08003edc   Section        0  bsp_usart.o(i.fputc)
    i.get_mag_accuracy                       0x08003f00   Section        0  ical.o(i.get_mag_accuracy)
    i.i2c_Ack                                0x08003f0c   Section        0  qst_sw_i2c.o(i.i2c_Ack)
    i.i2c_NAck                               0x08003f4c   Section        0  qst_sw_i2c.o(i.i2c_NAck)
    i.i2c_ReadByte                           0x08003f80   Section        0  qst_sw_i2c.o(i.i2c_ReadByte)
    i.i2c_SendByte                           0x08004014   Section        0  qst_sw_i2c.o(i.i2c_SendByte)
    i.i2c_Start                              0x08004078   Section        0  qst_sw_i2c.o(i.i2c_Start)
    i.i2c_Stop                               0x080040c8   Section        0  qst_sw_i2c.o(i.i2c_Stop)
    i.i2c_WaitAck                            0x08004104   Section        0  qst_sw_i2c.o(i.i2c_WaitAck)
    i.i2c_sw_gpio_config                     0x08004180   Section        0  qst_sw_i2c.o(i.i2c_sw_gpio_config)
    i.ical_Init                              0x080041b0   Section        0  ical.o(i.ical_Init)
    i.ical_addSample                         0x080041f8   Section        0  ical.o(i.ical_addSample)
    i.ical_clearFarPoint                     0x08004240   Section        0  ical.o(i.ical_clearFarPoint)
    i.ical_collectDataPoint                  0x0800435c   Section        0  ical.o(i.ical_collectDataPoint)
    i.ical_computeCalibration                0x08004390   Section        0  ical.o(i.ical_computeCalibration)
    i.ical_qualify                           0x08004404   Section        0  ical.o(i.ical_qualify)
    i.ical_shiftData                         0x080044ec   Section        0  ical.o(i.ical_shiftData)
    i.imu_drdy_callback_test                 0x080045c4   Section        0  main.o(i.imu_drdy_callback_test)
    imu_drdy_callback_test                   0x080045c5   Thumb Code    58  main.o(i.imu_drdy_callback_test)
    i.imu_hw_reset                           0x08004620   Section        0  main.o(i.imu_hw_reset)
    imu_hw_reset                             0x08004621   Thumb Code   154  main.o(i.imu_hw_reset)
    i.imu_polling_test                       0x0800473c   Section        0  main.o(i.imu_polling_test)
    imu_polling_test                         0x0800473d   Thumb Code    68  main.o(i.imu_polling_test)
    i.imu_process_irq                        0x080047a0   Section        0  main.o(i.imu_process_irq)
    imu_process_irq                          0x080047a1   Thumb Code   100  main.o(i.imu_process_irq)
    i.imu_setup_irq                          0x08004824   Section        0  main.o(i.imu_setup_irq)
    imu_setup_irq                            0x08004825   Thumb Code   238  main.o(i.imu_setup_irq)
    i.imu_sw_cali                            0x0800491c   Section        0  main.o(i.imu_sw_cali)
    imu_sw_cali                              0x0800491d   Thumb Code   140  main.o(i.imu_sw_cali)
    i.mFabs                                  0x080049b0   Section        0  ical.o(i.mFabs)
    i.mMemset                                0x080049c8   Section        0  ical.o(i.mMemset)
    i.mSabs                                  0x080049de   Section        0  ical.o(i.mSabs)
    i.mSqrt                                  0x080049f0   Section        0  ical.o(i.mSqrt)
    i.main                                   0x08004a5c   Section        0  main.o(i.main)
    i.mcu_sleep_check                        0x08004d24   Section        0  main.o(i.mcu_sleep_check)
    mcu_sleep_check                          0x08004d25   Thumb Code     6  main.o(i.mcu_sleep_check)
    i.mcu_sleep_exit                         0x08004d2c   Section        0  main.o(i.mcu_sleep_exit)
    mcu_sleep_exit                           0x08004d2d   Thumb Code    48  main.o(i.mcu_sleep_exit)
    i.pow                                    0x08004d84   Section        0  pow.o(i.pow)
    i.process                                0x0800575c   Section        0  ical.o(i.process)
    i.push2mcal                              0x08005b9c   Section        0  ical.o(i.push2mcal)
    i.qma6981_initialize                     0x08005d4c   Section        0  qmax981.o(i.qma6981_initialize)
    qma6981_initialize                       0x08005d4d   Thumb Code   146  qmax981.o(i.qma6981_initialize)
    i.qma6981_read_raw_xyz                   0x08005e10   Section        0  qmax981.o(i.qma6981_read_raw_xyz)
    qma6981_read_raw_xyz                     0x08005e11   Thumb Code   104  qmax981.o(i.qma6981_read_raw_xyz)
    i.qma7981_initialize                     0x08005e8c   Section        0  qmax981.o(i.qma7981_initialize)
    qma7981_initialize                       0x08005e8d   Thumb Code   320  qmax981.o(i.qma7981_initialize)
    i.qma7981_read_raw_xyz                   0x08006010   Section        0  qmax981.o(i.qma7981_read_raw_xyz)
    qma7981_read_raw_xyz                     0x08006011   Thumb Code   112  qmax981.o(i.qma7981_read_raw_xyz)
    i.qma7981_v2_initialize                  0x08006094   Section        0  qmax981.o(i.qma7981_v2_initialize)
    qma7981_v2_initialize                    0x08006095   Thumb Code   444  qmax981.o(i.qma7981_v2_initialize)
    i.qmaX981_check_no_motion                0x080062f4   Section        0  qmax981.o(i.qmaX981_check_no_motion)
    i.qmaX981_chip_id                        0x080063d0   Section        0  qmax981.o(i.qmaX981_chip_id)
    i.qmaX981_delay                          0x0800640c   Section        0  qmax981.o(i.qmaX981_delay)
    i.qmaX981_init                           0x08006424   Section        0  qmax981.o(i.qmaX981_init)
    i.qmaX981_irq_hdlr                       0x080065d0   Section        0  qmax981.o(i.qmaX981_irq_hdlr)
    i.qmaX981_read_acc                       0x08006648   Section        0  qmax981.o(i.qmaX981_read_acc)
    i.qmaX981_read_raw                       0x08006700   Section        0  qmax981.o(i.qmaX981_read_raw)
    i.qmaX981_readreg                        0x08006738   Section        0  qmax981.o(i.qmaX981_readreg)
    i.qmaX981_writereg                       0x08006754   Section        0  qmax981.o(i.qmaX981_writereg)
    i.qmc6308_enable                         0x0800676c   Section        0  qmc6308.o(i.qmc6308_enable)
    qmc6308_enable                           0x0800676d   Thumb Code    42  qmc6308.o(i.qmc6308_enable)
    i.qmc6308_get_chipid                     0x08006798   Section        0  qmc6308.o(i.qmc6308_get_chipid)
    qmc6308_get_chipid                       0x08006799   Thumb Code   120  qmc6308.o(i.qmc6308_get_chipid)
    i.qmc6308_init                           0x0800685c   Section        0  qmc6308.o(i.qmc6308_init)
    i.qmc6308_read_block                     0x080068d4   Section        0  qmc6308.o(i.qmc6308_read_block)
    qmc6308_read_block                       0x080068d5   Thumb Code    22  qmc6308.o(i.qmc6308_read_block)
    i.qmc6308_read_mag_xyz                   0x080068ec   Section        0  qmc6308.o(i.qmc6308_read_mag_xyz)
    i.qmc6308_set_layout                     0x080069d8   Section        0  qmc6308.o(i.qmc6308_set_layout)
    qmc6308_set_layout                       0x080069d9   Thumb Code   276  qmc6308.o(i.qmc6308_set_layout)
    i.qmc6308_set_mode                       0x08006af0   Section        0  qmc6308.o(i.qmc6308_set_mode)
    i.qmc6308_set_output_data_rate           0x08006b58   Section        0  qmc6308.o(i.qmc6308_set_output_data_rate)
    i.qmc6308_write_reg                      0x08006bd0   Section        0  qmc6308.o(i.qmc6308_write_reg)
    qmc6308_write_reg                        0x08006bd1   Thumb Code    18  qmc6308.o(i.qmc6308_write_reg)
    i.qmcX983_ReadData                       0x08006be2   Section        0  qmcx983.o(i.qmcX983_ReadData)
    i.qmcX983_WriteReg                       0x08006bfa   Section        0  qmcx983.o(i.qmcX983_WriteReg)
    i.qmcX983_delay                          0x08006c0e   Section        0  qmcx983.o(i.qmcX983_delay)
    qmcX983_delay                            0x08006c0f   Thumb Code    24  qmcx983.o(i.qmcX983_delay)
    i.qmcX983_device_check                   0x08006c28   Section        0  qmcx983.o(i.qmcX983_device_check)
    qmcX983_device_check                     0x08006c29   Thumb Code   252  qmcx983.o(i.qmcX983_device_check)
    i.qmcX983_enable                         0x08006dcc   Section        0  qmcx983.o(i.qmcX983_enable)
    qmcX983_enable                           0x08006dcd   Thumb Code   104  qmcx983.o(i.qmcX983_enable)
    i.qmcX983_init                           0x08006e48   Section        0  qmcx983.o(i.qmcX983_init)
    i.qmcX983_read_mag_xyz                   0x08006ec8   Section        0  qmcx983.o(i.qmcX983_read_mag_xyz)
    i.qmcX983_start_measure                  0x0800704c   Section        0  qmcx983.o(i.qmcX983_start_measure)
    qmcX983_start_measure                    0x0800704d   Thumb Code    12  qmcx983.o(i.qmcX983_start_measure)
    i.qmcx983_get_OPT                        0x08007058   Section        0  qmcx983.o(i.qmcx983_get_OPT)
    qmcx983_get_OPT                          0x08007059   Thumb Code   352  qmcx983.o(i.qmcx983_get_OPT)
    i.qmp6988_ReadData                       0x0800721c   Section        0  qmp6988.o(i.qmp6988_ReadData)
    i.qmp6988_WriteReg                       0x08007238   Section        0  qmp6988.o(i.qmp6988_WriteReg)
    i.qmp6988_calc_altitude                  0x0800724c   Section        0  qmp6988.o(i.qmp6988_calc_altitude)
    i.qmp6988_calc_pressure                  0x080072d4   Section        0  qmp6988.o(i.qmp6988_calc_pressure)
    i.qmp6988_convTx_02e                     0x080073a4   Section        0  qmp6988.o(i.qmp6988_convTx_02e)
    qmp6988_convTx_02e                       0x080073a5   Thumb Code   114  qmp6988.o(i.qmp6988_convTx_02e)
    i.qmp6988_delay                          0x08007416   Section        0  qmp6988.o(i.qmp6988_delay)
    qmp6988_delay                            0x08007417   Thumb Code    24  qmp6988.o(i.qmp6988_delay)
    i.qmp6988_device_check                   0x08007430   Section        0  qmp6988.o(i.qmp6988_device_check)
    qmp6988_device_check                     0x08007431   Thumb Code    80  qmp6988.o(i.qmp6988_device_check)
    i.qmp6988_get_calibration_data           0x080074c0   Section        0  qmp6988.o(i.qmp6988_get_calibration_data)
    qmp6988_get_calibration_data             0x080074c1   Thumb Code   710  qmp6988.o(i.qmp6988_get_calibration_data)
    i.qmp6988_get_pressure_02e               0x08007944   Section        0  qmp6988.o(i.qmp6988_get_pressure_02e)
    qmp6988_get_pressure_02e                 0x08007945   Thumb Code   578  qmp6988.o(i.qmp6988_get_pressure_02e)
    i.qmp6988_init                           0x08007b86   Section        0  qmp6988.o(i.qmp6988_init)
    i.qmp6988_set_filter                     0x08007bce   Section        0  qmp6988.o(i.qmp6988_set_filter)
    qmp6988_set_filter                       0x08007bcf   Thumb Code    28  qmp6988.o(i.qmp6988_set_filter)
    i.qmp6988_set_oversampling_p             0x08007bea   Section        0  qmp6988.o(i.qmp6988_set_oversampling_p)
    qmp6988_set_oversampling_p               0x08007beb   Thumb Code    60  qmp6988.o(i.qmp6988_set_oversampling_p)
    i.qmp6988_set_oversampling_t             0x08007c26   Section        0  qmp6988.o(i.qmp6988_set_oversampling_t)
    qmp6988_set_oversampling_t               0x08007c27   Thumb Code    60  qmp6988.o(i.qmp6988_set_oversampling_t)
    i.qmp6988_set_powermode                  0x08007c64   Section        0  qmp6988.o(i.qmp6988_set_powermode)
    qmp6988_set_powermode                    0x08007c65   Thumb Code   108  qmp6988.o(i.qmp6988_set_powermode)
    i.qmp6988_software_reset                 0x08007d08   Section        0  qmp6988.o(i.qmp6988_software_reset)
    qmp6988_software_reset                   0x08007d09   Thumb Code     2  qmp6988.o(i.qmp6988_software_reset)
    i.qst_algo_imu_cali                      0x08007d0c   Section        0  imualgo.o(i.qst_algo_imu_cali)
    i.qst_algo_imu_data_process              0x080083f8   Section        0  imualgo.o(i.qst_algo_imu_data_process)
    i.qst_algo_imu_get_offset                0x080084cc   Section        0  imualgo.o(i.qst_algo_imu_get_offset)
    i.qst_algo_imu_init                      0x08008520   Section        0  imualgo.o(i.qst_algo_imu_init)
    i.qst_delay                              0x08008764   Section        0  main.o(i.qst_delay)
    i.qst_sensor_read                        0x08008778   Section        0  main.o(i.qst_sensor_read)
    i.qst_sw_readreg                         0x080088f8   Section        0  qst_sw_i2c.o(i.qst_sw_readreg)
    i.qst_sw_writereg                        0x0800896a   Section        0  qst_sw_i2c.o(i.qst_sw_writereg)
    i.removePointAt                          0x080089b0   Section        0  ical.o(i.removePointAt)
    i.sinf                                   0x08008a3c   Section        0  sinf.o(i.sinf)
    i.sqrt                                   0x08008bc4   Section        0  sqrt.o(i.sqrt)
    i.sqrtf                                  0x08008c10   Section        0  sqrtf.o(i.sqrtf)
    i.storeCalibrationToFile                 0x08008c3c   Section        0  ical.o(i.storeCalibrationToFile)
    i.update_offset                          0x08008cb4   Section        0  ical.o(i.update_offset)
    i.vec_diff                               0x08008d90   Section        0  ical.o(i.vec_diff)
    i.vec_magnitude                          0x08008dbc   Section        0  ical.o(i.vec_magnitude)
    .constdata                               0x08008e16   Section      134  qmax981.o(.constdata)
    qst_map                                  0x08008e16   Data          96  qmax981.o(.constdata)
    .constdata                               0x08008e9c   Section       37  qmcx983.o(.constdata)
    __func__                                 0x08008e9c   Data          21  qmcx983.o(.constdata)
    __func__                                 0x08008eb1   Data          16  qmcx983.o(.constdata)
    .constdata                               0x08008ec1   Section       21  qmp6988.o(.constdata)
    __func__                                 0x08008ec1   Data          21  qmp6988.o(.constdata)
    .constdata                               0x08008ed6   Section       19  qmc6308.o(.constdata)
    __func__                                 0x08008ed6   Data          19  qmc6308.o(.constdata)
    .constdata                               0x08008eec   Section       12  imualgo.o(.constdata)
    .constdata                               0x08008ef8   Section      136  pow.o(.constdata)
    bp                                       0x08008ef8   Data          16  pow.o(.constdata)
    dp_h                                     0x08008f08   Data          16  pow.o(.constdata)
    dp_l                                     0x08008f18   Data          16  pow.o(.constdata)
    L                                        0x08008f28   Data          48  pow.o(.constdata)
    P                                        0x08008f58   Data          40  pow.o(.constdata)
    .constdata                               0x08008f80   Section      152  atan.o(.constdata)
    atanhi                                   0x08008f80   Data          32  atan.o(.constdata)
    atanlo                                   0x08008fa0   Data          32  atan.o(.constdata)
    aTodd                                    0x08008fc0   Data          40  atan.o(.constdata)
    aTeven                                   0x08008fe8   Data          48  atan.o(.constdata)
    .constdata                               0x08009018   Section        8  qnan.o(.constdata)
    .constdata                               0x08009020   Section       32  rredf.o(.constdata)
    twooverpi                                0x08009020   Data          32  rredf.o(.constdata)
    .conststring                             0x08009040   Section       20  ical.o(.conststring)
    .data                                    0x20000000   Section       20  system_stm32f10x.o(.data)
    .data                                    0x20000014   Section       20  stm32f10x_rcc.o(.data)
    APBAHBPrescTable                         0x20000014   Data          16  stm32f10x_rcc.o(.data)
    ADCPrescTable                            0x20000024   Data           4  stm32f10x_rcc.o(.data)
    .data                                    0x20000028   Section       32  main.o(.data)
    g_chip                                   0x20000028   Data           5  main.o(.data)
    qst_mcu_sleep                            0x2000002d   Data           1  main.o(.data)
    acc_out_raw                              0x2000002e   Data           6  main.o(.data)
    gyro_out_raw                             0x20000034   Data           6  main.o(.data)
    sum_1                                    0x2000003c   Data           4  main.o(.data)
    sum_2                                    0x20000040   Data           4  main.o(.data)
    check_count                              0x20000044   Data           4  main.o(.data)
    .data                                    0x20000048   Section       12  bsp_systick.o(.data)
    uwTick                                   0x20000048   Data           8  bsp_systick.o(.data)
    .data                                    0x20000054   Section        1  qmax981.o(.data)
    QMAX981_I2C_ADDR                         0x20000054   Data           1  qmax981.o(.data)
    .data                                    0x20000056   Section      128  qmcx983.o(.data)
    .data                                    0x200000d6   Section       12  fis210x.o(.data)
    acc_lsb_div                              0x200000d6   Data           2  fis210x.o(.data)
    gyro_lsb_div                             0x200000d8   Data           2  fis210x.o(.data)
    fisimu_config                            0x200000da   Data           8  fis210x.o(.data)
    .data                                    0x200000e2   Section       10  qmc6308.o(.data)
    sensor_mask                              0x200000e2   Data           4  qmc6308.o(.data)
    g_map                                    0x200000e6   Data           6  qmc6308.o(.data)
    .data                                    0x200000ec   Section       32  imualgo.o(.data)
    cali_count                               0x200000ec   Data           4  imualgo.o(.data)
    gyro_x_thres                             0x200000f0   Data           4  imualgo.o(.data)
    gyro_y_thres                             0x200000f4   Data           4  imualgo.o(.data)
    gyro_z_thres                             0x200000f8   Data           4  imualgo.o(.data)
    gyro_stable_count                        0x20000108   Data           1  imualgo.o(.data)
    anti_gyro_stable_count                   0x20000109   Data           1  imualgo.o(.data)
    linear_acc_init                          0x2000010a   Data           1  imualgo.o(.data)
    gravity_acc_init                         0x2000010b   Data           1  imualgo.o(.data)
    .data                                    0x2000010c   Section       60  ical.o(.data)
    AvgMagR                                  0x20000120   Data           2  ical.o(.data)
    lastStatus                               0x20000123   Data           1  ical.o(.data)
    curAccuracy                              0x20000124   Data           1  ical.o(.data)
    nCheckHorizontal                         0x2000012e   Data           1  ical.o(.data)
    IsHorizontal                             0x2000012f   Data           1  ical.o(.data)
    .data                                    0x20000148   Section        4  stdout.o(.data)
    .data                                    0x2000014c   Section        4  errno.o(.data)
    _errno                                   0x2000014c   Data           4  errno.o(.data)
    .bss                                     0x20000150   Section      332  main.o(.bss)
    g_out                                    0x20000150   Data         216  main.o(.bss)
    g_imu                                    0x20000228   Data          40  main.o(.bss)
    qmc_cali                                 0x20000250   Data          60  main.o(.bss)
    g_acc                                    0x2000028c   Data          16  main.o(.bss)
    .bss                                     0x2000029c   Section       36  qmax981.o(.bss)
    g_qmaX981                                0x2000029c   Data          24  qmax981.o(.bss)
    g_nm                                     0x200002b4   Data          12  qmax981.o(.bss)
    .bss                                     0x200002c0   Section       20  qmcx983.o(.bss)
    g_qmcX983                                0x200002c0   Data          20  qmcx983.o(.bss)
    .bss                                     0x200002d4   Section       12  fis210x.o(.bss)
    imu_map                                  0x200002d4   Data          12  fis210x.o(.bss)
    .bss                                     0x200002e0   Section     2132  imualgo.o(.bss)
    gravity                                  0x200002e0   Data          12  imualgo.o(.bss)
    offset_acc                               0x200002ec   Data          12  imualgo.o(.bss)
    offset_gyro                              0x200002f8   Data          12  imualgo.o(.bss)
    offset_dq                                0x20000304   Data          16  imualgo.o(.bss)
    accel_data                               0x20000314   Data         600  imualgo.o(.bss)
    gyro_data                                0x2000056c   Data         600  imualgo.o(.bss)
    dq_data                                  0x200007c4   Data         800  imualgo.o(.bss)
    rms_dq                                   0x20000ae4   Data          16  imualgo.o(.bss)
    qstimu                                   0x20000af4   Data          48  imualgo.o(.bss)
    qstdq                                    0x20000b24   Data          16  imualgo.o(.bss)
    .bss                                     0x20000b34   Section     2396  ical.o(.bss)
    icalMgr                                  0x20000b34   Data          20  ical.o(.bss)
    icalEns                                  0x20000b48   Data         300  ical.o(.bss)
    ma                                       0x20000c74   Data         128  ical.o(.bss)
    Jpt                                      0x20000cf4   Data          16  ical.o(.bss)
    JTJ                                      0x20000d04   Data          64  ical.o(.bss)
    JTK                                      0x20000d44   Data          16  ical.o(.bss)
    Jout                                     0x20000d54   Data          16  ical.o(.bss)
    magX                                     0x20000d64   Data         200  ical.o(.bss)
    magY                                     0x20000e2c   Data         200  ical.o(.bss)
    magZ                                     0x20000ef4   Data         200  ical.o(.bss)
    magXX                                    0x20000fbc   Data         200  ical.o(.bss)
    magYY                                    0x20001084   Data         200  ical.o(.bss)
    magZZ                                    0x2000114c   Data         200  ical.o(.bss)
    rr                                       0x20001214   Data         200  ical.o(.bss)
    seedCal                                  0x200012dc   Data          14  ical.o(.bss)
    newCal                                   0x200012ea   Data          14  ical.o(.bss)
    STACK                                    0x20001490   Section     1024  startup_stm32f10x_md.o(STACK)

    Global Symbols

    Symbol Name                              Value     Ov Type        Size  Object(Section)

    BuildAttributes$$THM_ISAv4$P$D$K$B$S$PE$A:L22UL41UL21$X:L11$S22US41US21$IEEE1$IW$USESV6$~STKCKD$USESV7$~SHL$OTIME$ROPI$IEEEX$EBA8$MICROLIB$REQ8$PRES8$EABIv2 0x00000000   Number         0  anon$$obj.o ABSOLUTE
    __ARM_use_no_argv                        0x00000000   Number         0  main.o ABSOLUTE
    _printf_a                                0x00000000   Number         0  stubs.o ABSOLUTE
    _printf_c                                0x00000000   Number         0  stubs.o ABSOLUTE
    _printf_charcount                        0x00000000   Number         0  stubs.o ABSOLUTE
    _printf_d                                0x00000000   Number         0  stubs.o ABSOLUTE
    _printf_e                                0x00000000   Number         0  stubs.o ABSOLUTE
    _printf_f                                0x00000000   Number         0  stubs.o ABSOLUTE
    _printf_flags                            0x00000000   Number         0  stubs.o ABSOLUTE
    _printf_fp_dec                           0x00000000   Number         0  stubs.o ABSOLUTE
    _printf_fp_hex                           0x00000000   Number         0  stubs.o ABSOLUTE
    _printf_g                                0x00000000   Number         0  stubs.o ABSOLUTE
    _printf_i                                0x00000000   Number         0  stubs.o ABSOLUTE
    _printf_int_dec                          0x00000000   Number         0  stubs.o ABSOLUTE
    _printf_l                                0x00000000   Number         0  stubs.o ABSOLUTE
    _printf_lc                               0x00000000   Number         0  stubs.o ABSOLUTE
    _printf_ll                               0x00000000   Number         0  stubs.o ABSOLUTE
    _printf_lld                              0x00000000   Number         0  stubs.o ABSOLUTE
    _printf_lli                              0x00000000   Number         0  stubs.o ABSOLUTE
    _printf_llo                              0x00000000   Number         0  stubs.o ABSOLUTE
    _printf_llu                              0x00000000   Number         0  stubs.o ABSOLUTE
    _printf_llx                              0x00000000   Number         0  stubs.o ABSOLUTE
    _printf_longlong_dec                     0x00000000   Number         0  stubs.o ABSOLUTE
    _printf_longlong_hex                     0x00000000   Number         0  stubs.o ABSOLUTE
    _printf_longlong_oct                     0x00000000   Number         0  stubs.o ABSOLUTE
    _printf_ls                               0x00000000   Number         0  stubs.o ABSOLUTE
    _printf_mbtowc                           0x00000000   Number         0  stubs.o ABSOLUTE
    _printf_n                                0x00000000   Number         0  stubs.o ABSOLUTE
    _printf_o                                0x00000000   Number         0  stubs.o ABSOLUTE
    _printf_p                                0x00000000   Number         0  stubs.o ABSOLUTE
    _printf_percent                          0x00000000   Number         0  stubs.o ABSOLUTE
    _printf_pre_padding                      0x00000000   Number         0  stubs.o ABSOLUTE
    _printf_return_value                     0x00000000   Number         0  stubs.o ABSOLUTE
    _printf_s                                0x00000000   Number         0  stubs.o ABSOLUTE
    _printf_sizespec                         0x00000000   Number         0  stubs.o ABSOLUTE
    _printf_str                              0x00000000   Number         0  stubs.o ABSOLUTE
    _printf_truncate_signed                  0x00000000   Number         0  stubs.o ABSOLUTE
    _printf_truncate_unsigned                0x00000000   Number         0  stubs.o ABSOLUTE
    _printf_u                                0x00000000   Number         0  stubs.o ABSOLUTE
    _printf_wc                               0x00000000   Number         0  stubs.o ABSOLUTE
    _printf_wctomb                           0x00000000   Number         0  stubs.o ABSOLUTE
    _printf_widthprec                        0x00000000   Number         0  stubs.o ABSOLUTE
    _printf_x                                0x00000000   Number         0  stubs.o ABSOLUTE
    __cpp_initialize__aeabi_                  - Undefined Weak Reference
    __cxa_finalize                            - Undefined Weak Reference
    _clock_init                               - Undefined Weak Reference
    _microlib_exit                            - Undefined Weak Reference
    _scanf_longlong                           - Undefined Weak Reference
    _scanf_real                               - Undefined Weak Reference
    _scanf_string                             - Undefined Weak Reference
    __Vectors_Size                           0x000000ec   Number         0  startup_stm32f10x_md.o ABSOLUTE
    __Vectors                                0x08000000   Data           4  startup_stm32f10x_md.o(RESET)
    __Vectors_End                            0x080000ec   Data           0  startup_stm32f10x_md.o(RESET)
    __main                                   0x080000ed   Thumb Code     0  entry.o(.ARM.Collect$$$$00000000)
    _main_stk                                0x080000ed   Thumb Code     0  entry2.o(.ARM.Collect$$$$00000001)
    _main_scatterload                        0x080000f1   Thumb Code     0  entry5.o(.ARM.Collect$$$$00000004)
    __main_after_scatterload                 0x080000f5   Thumb Code     0  entry5.o(.ARM.Collect$$$$00000004)
    _main_clock                              0x080000f5   Thumb Code     0  entry7b.o(.ARM.Collect$$$$00000008)
    _main_cpp_init                           0x080000f5   Thumb Code     0  entry8b.o(.ARM.Collect$$$$0000000A)
    _main_init                               0x080000f5   Thumb Code     0  entry9a.o(.ARM.Collect$$$$0000000B)
    __rt_final_cpp                           0x080000fd   Thumb Code     0  entry10a.o(.ARM.Collect$$$$0000000D)
    __rt_final_exit                          0x080000fd   Thumb Code     0  entry11a.o(.ARM.Collect$$$$0000000F)
    Reset_Handler                            0x08000101   Thumb Code     8  startup_stm32f10x_md.o(.text)
    ADC1_2_IRQHandler                        0x0800011b   Thumb Code     0  startup_stm32f10x_md.o(.text)
    CAN1_RX1_IRQHandler                      0x0800011b   Thumb Code     0  startup_stm32f10x_md.o(.text)
    CAN1_SCE_IRQHandler                      0x0800011b   Thumb Code     0  startup_stm32f10x_md.o(.text)
    DMA1_Channel1_IRQHandler                 0x0800011b   Thumb Code     0  startup_stm32f10x_md.o(.text)
    DMA1_Channel2_IRQHandler                 0x0800011b   Thumb Code     0  startup_stm32f10x_md.o(.text)
    DMA1_Channel3_IRQHandler                 0x0800011b   Thumb Code     0  startup_stm32f10x_md.o(.text)
    DMA1_Channel4_IRQHandler                 0x0800011b   Thumb Code     0  startup_stm32f10x_md.o(.text)
    DMA1_Channel5_IRQHandler                 0x0800011b   Thumb Code     0  startup_stm32f10x_md.o(.text)
    DMA1_Channel6_IRQHandler                 0x0800011b   Thumb Code     0  startup_stm32f10x_md.o(.text)
    DMA1_Channel7_IRQHandler                 0x0800011b   Thumb Code     0  startup_stm32f10x_md.o(.text)
    EXTI0_IRQHandler                         0x0800011b   Thumb Code     0  startup_stm32f10x_md.o(.text)
    EXTI1_IRQHandler                         0x0800011b   Thumb Code     0  startup_stm32f10x_md.o(.text)
    EXTI2_IRQHandler                         0x0800011b   Thumb Code     0  startup_stm32f10x_md.o(.text)
    EXTI3_IRQHandler                         0x0800011b   Thumb Code     0  startup_stm32f10x_md.o(.text)
    FLASH_IRQHandler                         0x0800011b   Thumb Code     0  startup_stm32f10x_md.o(.text)
    I2C1_ER_IRQHandler                       0x0800011b   Thumb Code     0  startup_stm32f10x_md.o(.text)
    I2C1_EV_IRQHandler                       0x0800011b   Thumb Code     0  startup_stm32f10x_md.o(.text)
    I2C2_ER_IRQHandler                       0x0800011b   Thumb Code     0  startup_stm32f10x_md.o(.text)
    I2C2_EV_IRQHandler                       0x0800011b   Thumb Code     0  startup_stm32f10x_md.o(.text)
    PVD_IRQHandler                           0x0800011b   Thumb Code     0  startup_stm32f10x_md.o(.text)
    RCC_IRQHandler                           0x0800011b   Thumb Code     0  startup_stm32f10x_md.o(.text)
    RTCAlarm_IRQHandler                      0x0800011b   Thumb Code     0  startup_stm32f10x_md.o(.text)
    RTC_IRQHandler                           0x0800011b   Thumb Code     0  startup_stm32f10x_md.o(.text)
    SPI1_IRQHandler                          0x0800011b   Thumb Code     0  startup_stm32f10x_md.o(.text)
    SPI2_IRQHandler                          0x0800011b   Thumb Code     0  startup_stm32f10x_md.o(.text)
    TAMPER_IRQHandler                        0x0800011b   Thumb Code     0  startup_stm32f10x_md.o(.text)
    TIM1_BRK_IRQHandler                      0x0800011b   Thumb Code     0  startup_stm32f10x_md.o(.text)
    TIM1_CC_IRQHandler                       0x0800011b   Thumb Code     0  startup_stm32f10x_md.o(.text)
    TIM1_TRG_COM_IRQHandler                  0x0800011b   Thumb Code     0  startup_stm32f10x_md.o(.text)
    TIM1_UP_IRQHandler                       0x0800011b   Thumb Code     0  startup_stm32f10x_md.o(.text)
    TIM3_IRQHandler                          0x0800011b   Thumb Code     0  startup_stm32f10x_md.o(.text)
    TIM4_IRQHandler                          0x0800011b   Thumb Code     0  startup_stm32f10x_md.o(.text)
    USART1_IRQHandler                        0x0800011b   Thumb Code     0  startup_stm32f10x_md.o(.text)
    USART2_IRQHandler                        0x0800011b   Thumb Code     0  startup_stm32f10x_md.o(.text)
    USART3_IRQHandler                        0x0800011b   Thumb Code     0  startup_stm32f10x_md.o(.text)
    USBWakeUp_IRQHandler                     0x0800011b   Thumb Code     0  startup_stm32f10x_md.o(.text)
    USB_HP_CAN1_TX_IRQHandler                0x0800011b   Thumb Code     0  startup_stm32f10x_md.o(.text)
    USB_LP_CAN1_RX0_IRQHandler               0x0800011b   Thumb Code     0  startup_stm32f10x_md.o(.text)
    WWDG_IRQHandler                          0x0800011b   Thumb Code     0  startup_stm32f10x_md.o(.text)
    __aeabi_ldivmod                          0x08000125   Thumb Code    98  ldiv.o(.text)
    __aeabi_memcpy                           0x08000187   Thumb Code    36  memcpya.o(.text)
    __aeabi_memcpy4                          0x08000187   Thumb Code     0  memcpya.o(.text)
    __aeabi_memcpy8                          0x08000187   Thumb Code     0  memcpya.o(.text)
    __aeabi_memset                           0x080001ab   Thumb Code    14  memseta.o(.text)
    __aeabi_memset4                          0x080001ab   Thumb Code     0  memseta.o(.text)
    __aeabi_memset8                          0x080001ab   Thumb Code     0  memseta.o(.text)
    __aeabi_memclr                           0x080001b9   Thumb Code     4  memseta.o(.text)
    __aeabi_memclr4                          0x080001b9   Thumb Code     0  memseta.o(.text)
    __aeabi_memclr8                          0x080001b9   Thumb Code     0  memseta.o(.text)
    _memset$wrapper                          0x080001bd   Thumb Code    18  memseta.o(.text)
    __aeabi_fadd                             0x080001cf   Thumb Code   164  fadd.o(.text)
    __aeabi_fsub                             0x08000273   Thumb Code     6  fadd.o(.text)
    __aeabi_frsub                            0x08000279   Thumb Code     6  fadd.o(.text)
    __aeabi_fmul                             0x0800027f   Thumb Code   100  fmul.o(.text)
    __aeabi_fdiv                             0x080002e3   Thumb Code   124  fdiv.o(.text)
    __aeabi_dadd                             0x0800035f   Thumb Code   322  dadd.o(.text)
    __aeabi_dsub                             0x080004a1   Thumb Code     6  dadd.o(.text)
    __aeabi_drsub                            0x080004a7   Thumb Code     6  dadd.o(.text)
    __aeabi_dmul                             0x080004ad   Thumb Code   228  dmul.o(.text)
    __aeabi_ddiv                             0x08000591   Thumb Code   222  ddiv.o(.text)
    __aeabi_i2f                              0x0800066f   Thumb Code    18  fflti.o(.text)
    __aeabi_ui2f                             0x08000681   Thumb Code    10  ffltui.o(.text)
    __aeabi_i2d                              0x0800068b   Thumb Code    34  dflti.o(.text)
    __aeabi_f2iz                             0x080006ad   Thumb Code    50  ffixi.o(.text)
    __aeabi_f2d                              0x080006df   Thumb Code    38  f2d.o(.text)
    __aeabi_cdcmpeq                          0x08000705   Thumb Code     0  cdcmple.o(.text)
    __aeabi_cdcmple                          0x08000705   Thumb Code    48  cdcmple.o(.text)
    __aeabi_cdrcmple                         0x08000735   Thumb Code    48  cdrcmple.o(.text)
    __aeabi_d2f                              0x08000765   Thumb Code    56  d2f.o(.text)
    __aeabi_cfcmpeq                          0x0800079d   Thumb Code     0  cfcmple.o(.text)
    __aeabi_cfcmple                          0x0800079d   Thumb Code    20  cfcmple.o(.text)
    __aeabi_cfrcmple                         0x080007b1   Thumb Code    20  cfrcmple.o(.text)
    __aeabi_uidiv                            0x080007c5   Thumb Code     0  uidiv.o(.text)
    __aeabi_uidivmod                         0x080007c5   Thumb Code    44  uidiv.o(.text)
    __aeabi_uldivmod                         0x080007f1   Thumb Code    98  uldiv.o(.text)
    __aeabi_llsl                             0x08000853   Thumb Code    30  llshl.o(.text)
    _ll_shift_l                              0x08000853   Thumb Code     0  llshl.o(.text)
    __aeabi_llsr                             0x08000871   Thumb Code    32  llushr.o(.text)
    _ll_ushift_r                             0x08000871   Thumb Code     0  llushr.o(.text)
    __aeabi_lasr                             0x08000891   Thumb Code    36  llsshr.o(.text)
    _ll_sshift_r                             0x08000891   Thumb Code     0  llsshr.o(.text)
    __I$use$fp                               0x080008b5   Thumb Code     0  iusefp.o(.text)
    _float_round                             0x080008b5   Thumb Code    18  fepilogue.o(.text)
    _float_epilogue                          0x080008c7   Thumb Code    92  fepilogue.o(.text)
    __ARM_scalbnf                            0x08000923   Thumb Code    24  fscalb.o(.text)
    scalbnf                                  0x08000923   Thumb Code     0  fscalb.o(.text)
    _fsqrt                                   0x0800093b   Thumb Code    94  fsqrt.o(.text)
    _frnd                                    0x08000999   Thumb Code    60  frnd.o(.text)
    _double_round                            0x080009d5   Thumb Code    30  depilogue.o(.text)
    _double_epilogue                         0x080009f3   Thumb Code   156  depilogue.o(.text)
    __ARM_scalbn                             0x08000a8f   Thumb Code    46  dscalb.o(.text)
    scalbn                                   0x08000a8f   Thumb Code     0  dscalb.o(.text)
    __aeabi_d2ulz                            0x08000abd   Thumb Code    48  dfixul.o(.text)
    __scatterload                            0x08000aed   Thumb Code    28  init.o(.text)
    __scatterload_rt2                        0x08000aed   Thumb Code     0  init.o(.text)
    _dsqrt                                   0x08000b11   Thumb Code   162  dsqrt.o(.text)
    __decompress                             0x08000bb3   Thumb Code     0  __dczerorl2.o(.text)
    __decompress1                            0x08000bb3   Thumb Code    86  __dczerorl2.o(.text)
    BusFault_Handler                         0x08000c09   Thumb Code     4  stm32f10x_it.o(i.BusFault_Handler)
    DebugMon_Handler                         0x08000c0d   Thumb Code     2  stm32f10x_it.o(i.DebugMon_Handler)
    EXTI15_10_IRQHandler                     0x08000c11   Thumb Code    28  main.o(i.EXTI15_10_IRQHandler)
    EXTI4_IRQHandler                         0x08000c31   Thumb Code    24  main.o(i.EXTI4_IRQHandler)
    EXTI9_5_IRQHandler                       0x08000c4d   Thumb Code    48  main.o(i.EXTI9_5_IRQHandler)
    EXTI_ClearITPendingBit                   0x08000c81   Thumb Code     6  stm32f10x_exti.o(i.EXTI_ClearITPendingBit)
    EXTI_GetITStatus                         0x08000c8d   Thumb Code    34  stm32f10x_exti.o(i.EXTI_GetITStatus)
    EXTI_Init                                0x08000cb5   Thumb Code   142  stm32f10x_exti.o(i.EXTI_Init)
    Filter_Acc                               0x08000d49   Thumb Code   186  ical.o(i.Filter_Acc)
    Filter_Mag                               0x08000e11   Thumb Code   190  ical.o(i.Filter_Mag)
    Filter_Ori                               0x08000edd   Thumb Code   308  ical.o(i.Filter_Ori)
    FisImu_Config_apply                      0x08001029   Thumb Code    84  fis210x.o(i.FisImu_Config_apply)
    FisImu_config_acc                        0x0800107d   Thumb Code   148  fis210x.o(i.FisImu_config_acc)
    FisImu_config_ae                         0x08001115   Thumb Code    38  fis210x.o(i.FisImu_config_ae)
    FisImu_config_gyro                       0x0800113d   Thumb Code   184  fis210x.o(i.FisImu_config_gyro)
    FisImu_config_mag                        0x080011f9   Thumb Code     2  fis210x.o(i.FisImu_config_mag)
    FisImu_disableWakeOnMotion               0x080011fb   Thumb Code    24  fis210x.o(i.FisImu_disableWakeOnMotion)
    FisImu_doCtrl9Command                    0x08001213   Thumb Code   116  fis210x.o(i.FisImu_doCtrl9Command)
    FisImu_enableSensors                     0x08001287   Thumb Code    26  fis210x.o(i.FisImu_enableSensors)
    FisImu_init                              0x080012a1   Thumb Code   204  fis210x.o(i.FisImu_init)
    FisImu_readStatus0                       0x08001419   Thumb Code    18  fis210x.o(i.FisImu_readStatus0)
    FisImu_readStatus1                       0x0800142b   Thumb Code    18  fis210x.o(i.FisImu_readStatus1)
    FisImu_read_reg                          0x0800143d   Thumb Code    32  fis210x.o(i.FisImu_read_reg)
    FisImu_read_xyz                          0x0800145d   Thumb Code   538  fis210x.o(i.FisImu_read_xyz)
    FisImu_read_xyz_raw                      0x0800168d   Thumb Code   128  fis210x.o(i.FisImu_read_xyz_raw)
    FisImu_set_layout                        0x0800170d   Thumb Code   278  fis210x.o(i.FisImu_set_layout)
    FisImu_write_reg                         0x08001829   Thumb Code    24  fis210x.o(i.FisImu_write_reg)
    GPIO_EXTILineConfig                      0x08001841   Thumb Code    60  stm32f10x_gpio.o(i.GPIO_EXTILineConfig)
    GPIO_Init                                0x08001881   Thumb Code   278  stm32f10x_gpio.o(i.GPIO_Init)
    GPIO_ResetBits                           0x08001997   Thumb Code     4  stm32f10x_gpio.o(i.GPIO_ResetBits)
    GPIO_SetBits                             0x0800199b   Thumb Code     4  stm32f10x_gpio.o(i.GPIO_SetBits)
    HAL_GetTick                              0x080019a1   Thumb Code     8  bsp_systick.o(i.HAL_GetTick)
    HAL_IncTick                              0x080019ad   Thumb Code    36  bsp_systick.o(i.HAL_IncTick)
    HardFault_Handler                        0x080019d9   Thumb Code     4  stm32f10x_it.o(i.HardFault_Handler)
    InvSqrt                                  0x080019dd   Thumb Code   150  ical.o(i.InvSqrt)
    MemManage_Handler                        0x08001a79   Thumb Code     4  stm32f10x_it.o(i.MemManage_Handler)
    NMI_Handler                              0x08001a7d   Thumb Code     2  stm32f10x_it.o(i.NMI_Handler)
    NVIC_Init                                0x08001a81   Thumb Code   100  misc.o(i.NVIC_Init)
    NVIC_PriorityGroupConfig                 0x08001af1   Thumb Code    10  misc.o(i.NVIC_PriorityGroupConfig)
    PWR_EnterSTOPMode                        0x08001b05   Thumb Code    54  stm32f10x_pwr.o(i.PWR_EnterSTOPMode)
    PendSV_Handler                           0x08001b45   Thumb Code     2  stm32f10x_it.o(i.PendSV_Handler)
    RCC_APB1PeriphClockCmd                   0x08001b49   Thumb Code    26  stm32f10x_rcc.o(i.RCC_APB1PeriphClockCmd)
    RCC_APB2PeriphClockCmd                   0x08001b69   Thumb Code    26  stm32f10x_rcc.o(i.RCC_APB2PeriphClockCmd)
    RCC_DeInit                               0x08001b89   Thumb Code    64  stm32f10x_rcc.o(i.RCC_DeInit)
    RCC_GetClocksFreq                        0x08001bd5   Thumb Code   192  stm32f10x_rcc.o(i.RCC_GetClocksFreq)
    RCC_GetFlagStatus                        0x08001ca9   Thumb Code    56  stm32f10x_rcc.o(i.RCC_GetFlagStatus)
    RCC_GetSYSCLKSource                      0x08001ce5   Thumb Code    10  stm32f10x_rcc.o(i.RCC_GetSYSCLKSource)
    RCC_HCLKConfig                           0x08001cf5   Thumb Code    18  stm32f10x_rcc.o(i.RCC_HCLKConfig)
    RCC_HSEConfig                            0x08001d0d   Thumb Code    70  stm32f10x_rcc.o(i.RCC_HSEConfig)
    RCC_PCLK1Config                          0x08001d59   Thumb Code    18  stm32f10x_rcc.o(i.RCC_PCLK1Config)
    RCC_PCLK2Config                          0x08001d71   Thumb Code    20  stm32f10x_rcc.o(i.RCC_PCLK2Config)
    RCC_PLLCmd                               0x08001d89   Thumb Code     6  stm32f10x_rcc.o(i.RCC_PLLCmd)
    RCC_PLLConfig                            0x08001d95   Thumb Code    24  stm32f10x_rcc.o(i.RCC_PLLConfig)
    RCC_SYSCLKConfig                         0x08001db1   Thumb Code    18  stm32f10x_rcc.o(i.RCC_SYSCLKConfig)
    RCC_WaitForHSEStartUp                    0x08001dc9   Thumb Code    56  stm32f10x_rcc.o(i.RCC_WaitForHSEStartUp)
    SVC_Handler                              0x08001e01   Thumb Code     2  stm32f10x_it.o(i.SVC_Handler)
    Set_Picth_Roll                           0x08001f41   Thumb Code    14  ical.o(i.Set_Picth_Roll)
    SysTick_Enable                           0x08001f59   Thumb Code    38  bsp_systick.o(i.SysTick_Enable)
    SysTick_Handler                          0x08001f7f   Thumb Code     8  stm32f10x_it.o(i.SysTick_Handler)
    SysTick_Init                             0x08001f89   Thumb Code   108  bsp_systick.o(i.SysTick_Init)
    SystemInit                               0x08002001   Thumb Code    78  system_stm32f10x.o(i.SystemInit)
    TIM2_IRQHandler                          0x08002061   Thumb Code    26  main.o(i.TIM2_IRQHandler)
    TIM_ClearITPendingBit                    0x0800207b   Thumb Code     6  stm32f10x_tim.o(i.TIM_ClearITPendingBit)
    TIM_GetITStatus                          0x08002081   Thumb Code    34  stm32f10x_tim.o(i.TIM_GetITStatus)
    USART_Cmd                                0x080020a3   Thumb Code    24  stm32f10x_usart.o(i.USART_Cmd)
    USART_Config                             0x080020bd   Thumb Code   116  bsp_usart.o(i.USART_Config)
    USART_GetFlagStatus                      0x08002139   Thumb Code    26  stm32f10x_usart.o(i.USART_GetFlagStatus)
    USART_Init                               0x08002155   Thumb Code   210  stm32f10x_usart.o(i.USART_Init)
    USART_SendData                           0x0800222d   Thumb Code     8  stm32f10x_usart.o(i.USART_SendData)
    UsageFault_Handler                       0x08002235   Thumb Code     4  stm32f10x_it.o(i.UsageFault_Handler)
    qst_algo_gravity_acc(float*)             0x08002239   Thumb Code   150  imualgo.o(i._Z20qst_algo_gravity_accPf)
    qmemset(void*, char, int)                0x080022e1   Thumb Code    20  imualgo.o(i._Z7qmemsetPvci)
    FastSqrt(float)                          0x080022f5   Thumb Code    20  fastmath.o(i._Z8FastSqrtf)
    FastSqrtI(float)                         0x08002309   Thumb Code    62  fastmath.o(i._Z9FastSqrtIf)
    __0fprintf                               0x08002355   Thumb Code    22  printfa.o(i.__0fprintf)
    __1fprintf                               0x08002355   Thumb Code     0  printfa.o(i.__0fprintf)
    __2fprintf                               0x08002355   Thumb Code     0  printfa.o(i.__0fprintf)
    __c89fprintf                             0x08002355   Thumb Code     0  printfa.o(i.__0fprintf)
    fprintf                                  0x08002355   Thumb Code     0  printfa.o(i.__0fprintf)
    __0printf                                0x08002371   Thumb Code    22  printfa.o(i.__0printf)
    __1printf                                0x08002371   Thumb Code     0  printfa.o(i.__0printf)
    __2printf                                0x08002371   Thumb Code     0  printfa.o(i.__0printf)
    __c89printf                              0x08002371   Thumb Code     0  printfa.o(i.__0printf)
    printf                                   0x08002371   Thumb Code     0  printfa.o(i.__0printf)
    __ARM_fpclassify                         0x08002391   Thumb Code    40  fpclassify.o(i.__ARM_fpclassify)
    __ARM_fpclassifyf                        0x080023b9   Thumb Code    38  fpclassifyf.o(i.__ARM_fpclassifyf)
    __kernel_poly                            0x080023df   Thumb Code   170  poly.o(i.__kernel_poly)
    __mathlib_dbl_divzero                    0x08002489   Thumb Code    12  dunder.o(i.__mathlib_dbl_divzero)
    __mathlib_dbl_infnan                     0x08002499   Thumb Code     6  dunder.o(i.__mathlib_dbl_infnan)
    __mathlib_dbl_infnan2                    0x0800249f   Thumb Code     4  dunder.o(i.__mathlib_dbl_infnan2)
    __mathlib_dbl_invalid                    0x080024a3   Thumb Code    12  dunder.o(i.__mathlib_dbl_invalid)
    __mathlib_dbl_overflow                   0x080024af   Thumb Code    14  dunder.o(i.__mathlib_dbl_overflow)
    __mathlib_dbl_underflow                  0x080024bd   Thumb Code    10  dunder.o(i.__mathlib_dbl_underflow)
    __mathlib_flt_infnan                     0x080024cd   Thumb Code     6  funder.o(i.__mathlib_flt_infnan)
    __mathlib_flt_invalid                    0x080024d3   Thumb Code     8  funder.o(i.__mathlib_flt_invalid)
    __mathlib_flt_underflow                  0x080024db   Thumb Code    10  funder.o(i.__mathlib_flt_underflow)
    __mathlib_rredf2                         0x080024e5   Thumb Code   344  rredf.o(i.__mathlib_rredf2)
    __scatterload_copy                       0x0800264d   Thumb Code    14  handlers.o(i.__scatterload_copy)
    __scatterload_null                       0x0800265b   Thumb Code     2  handlers.o(i.__scatterload_null)
    __scatterload_zeroinit                   0x0800265d   Thumb Code    14  handlers.o(i.__scatterload_zeroinit)
    __set_errno                              0x0800266d   Thumb Code     6  errno.o(i.__set_errno)
    asinf                                    0x08003079   Thumb Code   254  asinf.o(i.asinf)
    atan                                     0x0800319d   Thumb Code   474  atan.o(i.atan)
    atan2                                    0x080033bd   Thumb Code   346  atan2.o(i.atan2)
    bsp_gpio_config                          0x0800353d   Thumb Code   144  main.o(i.bsp_gpio_config)
    checkAccuracy                            0x080035d5   Thumb Code   148  ical.o(i.checkAccuracy)
    clear_offset                             0x08003675   Thumb Code     8  ical.o(i.clear_offset)
    cosf                                     0x08003681   Thumb Code   328  cosf.o(i.cosf)
    delay_us                                 0x080037fd   Thumb Code   132  qst_sw_i2c.o(i.delay_us)
    em_JTJ                                   0x08003881   Thumb Code   110  ical.o(i.em_JTJ)
    em_JTJinvJK                              0x080038f9   Thumb Code    76  ical.o(i.em_JTJinvJK)
    em_JTK                                   0x08003951   Thumb Code    64  ical.o(i.em_JTK)
    em_average                               0x08003999   Thumb Code   152  ical.o(i.em_average)
    em_center                                0x08003a31   Thumb Code    94  ical.o(i.em_center)
    em_demean                                0x08003a95   Thumb Code    92  ical.o(i.em_demean)
    em_invert                                0x08003af1   Thumb Code   316  ical.o(i.em_invert)
    em_moveData                              0x08003c31   Thumb Code    46  ical.o(i.em_moveData)
    em_prepare_data                          0x08003c69   Thumb Code   206  ical.o(i.em_prepare_data)
    em_restore_data                          0x08003d4d   Thumb Code   208  ical.o(i.em_restore_data)
    em_results                               0x08003e1d   Thumb Code   190  ical.o(i.em_results)
    fputc                                    0x08003edd   Thumb Code    32  bsp_usart.o(i.fputc)
    get_mag_accuracy                         0x08003f01   Thumb Code     6  ical.o(i.get_mag_accuracy)
    i2c_Ack                                  0x08003f0d   Thumb Code    58  qst_sw_i2c.o(i.i2c_Ack)
    i2c_NAck                                 0x08003f4d   Thumb Code    48  qst_sw_i2c.o(i.i2c_NAck)
    i2c_ReadByte                             0x08003f81   Thumb Code   142  qst_sw_i2c.o(i.i2c_ReadByte)
    i2c_SendByte                             0x08004015   Thumb Code    94  qst_sw_i2c.o(i.i2c_SendByte)
    i2c_Start                                0x08004079   Thumb Code    76  qst_sw_i2c.o(i.i2c_Start)
    i2c_Stop                                 0x080040c9   Thumb Code    56  qst_sw_i2c.o(i.i2c_Stop)
    i2c_WaitAck                              0x08004105   Thumb Code   120  qst_sw_i2c.o(i.i2c_WaitAck)
    i2c_sw_gpio_config                       0x08004181   Thumb Code    44  qst_sw_i2c.o(i.i2c_sw_gpio_config)
    ical_Init                                0x080041b1   Thumb Code    56  ical.o(i.ical_Init)
    ical_addSample                           0x080041f9   Thumb Code    62  ical.o(i.ical_addSample)
    ical_clearFarPoint                       0x08004241   Thumb Code   274  ical.o(i.ical_clearFarPoint)
    ical_collectDataPoint                    0x0800435d   Thumb Code    46  ical.o(i.ical_collectDataPoint)
    ical_computeCalibration                  0x08004391   Thumb Code   108  ical.o(i.ical_computeCalibration)
    ical_qualify                             0x08004405   Thumb Code   220  ical.o(i.ical_qualify)
    ical_shiftData                           0x080044ed   Thumb Code   206  ical.o(i.ical_shiftData)
    mFabs                                    0x080049b1   Thumb Code    24  ical.o(i.mFabs)
    mMemset                                  0x080049c9   Thumb Code    22  ical.o(i.mMemset)
    mSabs                                    0x080049df   Thumb Code    16  ical.o(i.mSabs)
    mSqrt                                    0x080049f1   Thumb Code    94  ical.o(i.mSqrt)
    main                                     0x08004a5d   Thumb Code   522  main.o(i.main)
    pow                                      0x08004d85   Thumb Code  2512  pow.o(i.pow)
    process                                  0x0800575d   Thumb Code   986  ical.o(i.process)
    push2mcal                                0x08005b9d   Thumb Code   408  ical.o(i.push2mcal)
    qmaX981_check_no_motion                  0x080062f5   Thumb Code   182  qmax981.o(i.qmaX981_check_no_motion)
    qmaX981_chip_id                          0x080063d1   Thumb Code    30  qmax981.o(i.qmaX981_chip_id)
    qmaX981_delay                            0x0800640d   Thumb Code    24  qmax981.o(i.qmaX981_delay)
    qmaX981_init                             0x08006425   Thumb Code   322  qmax981.o(i.qmaX981_init)
    qmaX981_irq_hdlr                         0x080065d1   Thumb Code    74  qmax981.o(i.qmaX981_irq_hdlr)
    qmaX981_read_acc                         0x08006649   Thumb Code   174  qmax981.o(i.qmaX981_read_acc)
    qmaX981_read_raw                         0x08006701   Thumb Code    52  qmax981.o(i.qmaX981_read_raw)
    qmaX981_readreg                          0x08006739   Thumb Code    24  qmax981.o(i.qmaX981_readreg)
    qmaX981_writereg                         0x08006755   Thumb Code    20  qmax981.o(i.qmaX981_writereg)
    qmc6308_init                             0x0800685d   Thumb Code    96  qmc6308.o(i.qmc6308_init)
    qmc6308_read_mag_xyz                     0x080068ed   Thumb Code   230  qmc6308.o(i.qmc6308_read_mag_xyz)
    qmc6308_set_mode                         0x08006af1   Thumb Code    62  qmc6308.o(i.qmc6308_set_mode)
    qmc6308_set_output_data_rate             0x08006b59   Thumb Code    66  qmc6308.o(i.qmc6308_set_output_data_rate)
    qmcX983_ReadData                         0x08006be3   Thumb Code    24  qmcx983.o(i.qmcX983_ReadData)
    qmcX983_WriteReg                         0x08006bfb   Thumb Code    20  qmcx983.o(i.qmcX983_WriteReg)
    qmcX983_init                             0x08006e49   Thumb Code    96  qmcx983.o(i.qmcX983_init)
    qmcX983_read_mag_xyz                     0x08006ec9   Thumb Code   374  qmcx983.o(i.qmcX983_read_mag_xyz)
    qmp6988_ReadData                         0x0800721d   Thumb Code    28  qmp6988.o(i.qmp6988_ReadData)
    qmp6988_WriteReg                         0x08007239   Thumb Code    20  qmp6988.o(i.qmp6988_WriteReg)
    qmp6988_calc_altitude                    0x0800724d   Thumb Code   106  qmp6988.o(i.qmp6988_calc_altitude)
    qmp6988_calc_pressure                    0x080072d5   Thumb Code   176  qmp6988.o(i.qmp6988_calc_pressure)
    qmp6988_init                             0x08007b87   Thumb Code    72  qmp6988.o(i.qmp6988_init)
    qst_algo_imu_cali                        0x08007d0d   Thumb Code  1704  imualgo.o(i.qst_algo_imu_cali)
    qst_algo_imu_data_process                0x080083f9   Thumb Code   190  imualgo.o(i.qst_algo_imu_data_process)
    qst_algo_imu_get_offset                  0x080084cd   Thumb Code    62  imualgo.o(i.qst_algo_imu_get_offset)
    qst_algo_imu_init                        0x08008521   Thumb Code   572  imualgo.o(i.qst_algo_imu_init)
    qst_delay                                0x08008765   Thumb Code    16  main.o(i.qst_delay)
    qst_sensor_read                          0x08008779   Thumb Code   366  main.o(i.qst_sensor_read)
    qst_sw_readreg                           0x080088f9   Thumb Code   114  qst_sw_i2c.o(i.qst_sw_readreg)
    qst_sw_writereg                          0x0800896b   Thumb Code    68  qst_sw_i2c.o(i.qst_sw_writereg)
    removePointAt                            0x080089b1   Thumb Code   130  ical.o(i.removePointAt)
    sinf                                     0x08008a3d   Thumb Code   338  sinf.o(i.sinf)
    sqrt                                     0x08008bc5   Thumb Code    76  sqrt.o(i.sqrt)
    sqrtf                                    0x08008c11   Thumb Code    44  sqrtf.o(i.sqrtf)
    storeCalibrationToFile                   0x08008c3d   Thumb Code    98  ical.o(i.storeCalibrationToFile)
    update_offset                            0x08008cb5   Thumb Code   200  ical.o(i.update_offset)
    vec_diff                                 0x08008d91   Thumb Code    44  ical.o(i.vec_diff)
    vec_magnitude                            0x08008dbd   Thumb Code    90  ical.o(i.vec_magnitude)
    qma6981_init_tbl                         0x08008e76   Data          18  qmax981.o(.constdata)
    qma7981_init_tbl                         0x08008e88   Data          20  qmax981.o(.constdata)
    __mathlib_zero                           0x08009018   Data           8  qnan.o(.constdata)
    Region$$Table$$Base                      0x08009054   Number         0  anon$$obj.o(Region$$Table)
    Region$$Table$$Limit                     0x08009074   Number         0  anon$$obj.o(Region$$Table)
    SystemCoreClock                          0x20000000   Data           4  system_stm32f10x.o(.data)
    AHBPrescTable                            0x20000004   Data          16  system_stm32f10x.o(.data)
    TickDelay                                0x20000050   Data           4  bsp_systick.o(.data)
    qmcX983_map                              0x20000056   Data         128  qmcx983.o(.data)
    exInt                                    0x200000fc   Data           4  imualgo.o(.data)
    eyInt                                    0x20000100   Data           4  imualgo.o(.data)
    ezInt                                    0x20000104   Data           4  imualgo.o(.data)
    Gain                                     0x2000010c   Data           4  ical.o(.data)
    wkCoefficients                           0x20000110   Data           4  ical.o(.data)
    ofsX                                     0x20000114   Data           2  ical.o(.data)
    ofsY                                     0x20000116   Data           2  ical.o(.data)
    ofsZ                                     0x20000118   Data           2  ical.o(.data)
    Kxx                                      0x2000011a   Data           2  ical.o(.data)
    Kyy                                      0x2000011c   Data           2  ical.o(.data)
    Kzz                                      0x2000011e   Data           2  ical.o(.data)
    lastCalibCount                           0x20000122   Data           1  ical.o(.data)
    lastR                                    0x20000126   Data           2  ical.o(.data)
    rd                                       0x20000128   Data           2  ical.o(.data)
    diffSameCount                            0x2000012a   Data           1  ical.o(.data)
    IsFirstCalAfterReboot                    0x2000012c   Data           2  ical.o(.data)
    ofsX_old                                 0x20000130   Data           2  ical.o(.data)
    ofsY_old                                 0x20000132   Data           2  ical.o(.data)
    ofsZ_old                                 0x20000134   Data           2  ical.o(.data)
    offset_avgN                              0x20000136   Data           1  ical.o(.data)
    ipitch                                   0x20000138   Data           4  ical.o(.data)
    iroll                                    0x2000013c   Data           4  ical.o(.data)
    nDiffAccuracy_3D                         0x20000140   Data           2  ical.o(.data)
    iHead                                    0x20000144   Data           4  ical.o(.data)
    __stdout                                 0x20000148   Data           4  stdout.o(.data)
    offset_buff                              0x200012f8   Data          24  ical.o(.bss)
    Accsum                                   0x20001310   Data          12  ical.o(.bss)
    fAcc                                     0x2000131c   Data         120  ical.o(.bss)
    Magsum                                   0x20001394   Data          12  ical.o(.bss)
    fMag                                     0x200013a0   Data         240  ical.o(.bss)
    __initial_sp                             0x20001890   Data           0  startup_stm32f10x_md.o(STACK)



==============================================================================

Memory Map of the image

  Image Entry point : 0x080000ed

  Load Region LR_IROM1 (Base: 0x08000000, Size: 0x000091c4, Max: 0x00020000, ABSOLUTE, COMPRESSED[0x000090d0])

    Execution Region ER_IROM1 (Exec base: 0x08000000, Load base: 0x08000000, Size: 0x00009074, Max: 0x00020000, ABSOLUTE)

    Exec Addr    Load Addr    Size         Type   Attr      Idx    E Section Name        Object

    0x08000000   0x08000000   0x000000ec   Data   RO            3    RESET               startup_stm32f10x_md.o
    0x080000ec   0x080000ec   0x00000000   Code   RO         5226  * .ARM.Collect$$$$00000000  mc_w.l(entry.o)
    0x080000ec   0x080000ec   0x00000004   Code   RO         5604    .ARM.Collect$$$$00000001  mc_w.l(entry2.o)
    0x080000f0   0x080000f0   0x00000004   Code   RO         5607    .ARM.Collect$$$$00000004  mc_w.l(entry5.o)
    0x080000f4   0x080000f4   0x00000000   Code   RO         5609    .ARM.Collect$$$$00000008  mc_w.l(entry7b.o)
    0x080000f4   0x080000f4   0x00000000   Code   RO         5611    .ARM.Collect$$$$0000000A  mc_w.l(entry8b.o)
    0x080000f4   0x080000f4   0x00000008   Code   RO         5612    .ARM.Collect$$$$0000000B  mc_w.l(entry9a.o)
    0x080000fc   0x080000fc   0x00000000   Code   RO         5614    .ARM.Collect$$$$0000000D  mc_w.l(entry10a.o)
    0x080000fc   0x080000fc   0x00000000   Code   RO         5616    .ARM.Collect$$$$0000000F  mc_w.l(entry11a.o)
    0x080000fc   0x080000fc   0x00000004   Code   RO         5605    .ARM.Collect$$$$00002712  mc_w.l(entry2.o)
    0x08000100   0x08000100   0x00000024   Code   RO            4    .text               startup_stm32f10x_md.o
    0x08000124   0x08000124   0x00000062   Code   RO         5233    .text               mc_w.l(ldiv.o)
    0x08000186   0x08000186   0x00000024   Code   RO         5235    .text               mc_w.l(memcpya.o)
    0x080001aa   0x080001aa   0x00000024   Code   RO         5237    .text               mc_w.l(memseta.o)
    0x080001ce   0x080001ce   0x000000b0   Code   RO         5508    .text               mf_w.l(fadd.o)
    0x0800027e   0x0800027e   0x00000064   Code   RO         5510    .text               mf_w.l(fmul.o)
    0x080002e2   0x080002e2   0x0000007c   Code   RO         5512    .text               mf_w.l(fdiv.o)
    0x0800035e   0x0800035e   0x0000014e   Code   RO         5514    .text               mf_w.l(dadd.o)
    0x080004ac   0x080004ac   0x000000e4   Code   RO         5516    .text               mf_w.l(dmul.o)
    0x08000590   0x08000590   0x000000de   Code   RO         5518    .text               mf_w.l(ddiv.o)
    0x0800066e   0x0800066e   0x00000012   Code   RO         5520    .text               mf_w.l(fflti.o)
    0x08000680   0x08000680   0x0000000a   Code   RO         5522    .text               mf_w.l(ffltui.o)
    0x0800068a   0x0800068a   0x00000022   Code   RO         5526    .text               mf_w.l(dflti.o)
    0x080006ac   0x080006ac   0x00000032   Code   RO         5530    .text               mf_w.l(ffixi.o)
    0x080006de   0x080006de   0x00000026   Code   RO         5536    .text               mf_w.l(f2d.o)
    0x08000704   0x08000704   0x00000030   Code   RO         5538    .text               mf_w.l(cdcmple.o)
    0x08000734   0x08000734   0x00000030   Code   RO         5540    .text               mf_w.l(cdrcmple.o)
    0x08000764   0x08000764   0x00000038   Code   RO         5542    .text               mf_w.l(d2f.o)
    0x0800079c   0x0800079c   0x00000014   Code   RO         5544    .text               mf_w.l(cfcmple.o)
    0x080007b0   0x080007b0   0x00000014   Code   RO         5546    .text               mf_w.l(cfrcmple.o)
    0x080007c4   0x080007c4   0x0000002c   Code   RO         5620    .text               mc_w.l(uidiv.o)
    0x080007f0   0x080007f0   0x00000062   Code   RO         5622    .text               mc_w.l(uldiv.o)
    0x08000852   0x08000852   0x0000001e   Code   RO         5624    .text               mc_w.l(llshl.o)
    0x08000870   0x08000870   0x00000020   Code   RO         5626    .text               mc_w.l(llushr.o)
    0x08000890   0x08000890   0x00000024   Code   RO         5628    .text               mc_w.l(llsshr.o)
    0x080008b4   0x080008b4   0x00000000   Code   RO         5641    .text               mc_w.l(iusefp.o)
    0x080008b4   0x080008b4   0x0000006e   Code   RO         5642    .text               mf_w.l(fepilogue.o)
    0x08000922   0x08000922   0x00000018   Code   RO         5644    .text               mf_w.l(fscalb.o)
    0x0800093a   0x0800093a   0x0000005e   Code   RO         5646    .text               mf_w.l(fsqrt.o)
    0x08000998   0x08000998   0x0000003c   Code   RO         5648    .text               mf_w.l(frnd.o)
    0x080009d4   0x080009d4   0x000000ba   Code   RO         5650    .text               mf_w.l(depilogue.o)
    0x08000a8e   0x08000a8e   0x0000002e   Code   RO         5652    .text               mf_w.l(dscalb.o)
    0x08000abc   0x08000abc   0x00000030   Code   RO         5654    .text               mf_w.l(dfixul.o)
    0x08000aec   0x08000aec   0x00000024   Code   RO         5656    .text               mc_w.l(init.o)
    0x08000b10   0x08000b10   0x000000a2   Code   RO         5663    .text               mf_w.l(dsqrt.o)
    0x08000bb2   0x08000bb2   0x00000056   Code   RO         5682    .text               mc_w.l(__dczerorl2.o)
    0x08000c08   0x08000c08   0x00000004   Code   RO         3333    i.BusFault_Handler  stm32f10x_it.o
    0x08000c0c   0x08000c0c   0x00000002   Code   RO         3334    i.DebugMon_Handler  stm32f10x_it.o
    0x08000c0e   0x08000c0e   0x00000002   PAD
    0x08000c10   0x08000c10   0x00000020   Code   RO         3108    i.EXTI15_10_IRQHandler  main.o
    0x08000c30   0x08000c30   0x0000001c   Code   RO         3109    i.EXTI4_IRQHandler  main.o
    0x08000c4c   0x08000c4c   0x00000034   Code   RO         3110    i.EXTI9_5_IRQHandler  main.o
    0x08000c80   0x08000c80   0x0000000c   Code   RO          939    i.EXTI_ClearITPendingBit  stm32f10x_exti.o
    0x08000c8c   0x08000c8c   0x00000028   Code   RO          943    i.EXTI_GetITStatus  stm32f10x_exti.o
    0x08000cb4   0x08000cb4   0x00000094   Code   RO          944    i.EXTI_Init         stm32f10x_exti.o
    0x08000d48   0x08000d48   0x000000c8   Code   RO         4828    i.Filter_Acc        ical.o
    0x08000e10   0x08000e10   0x000000cc   Code   RO         4829    i.Filter_Mag        ical.o
    0x08000edc   0x08000edc   0x0000014c   Code   RO         4830    i.Filter_Ori        ical.o
    0x08001028   0x08001028   0x00000054   Code   RO         3998    i.FisImu_Config_apply  fis210x.o
    0x0800107c   0x0800107c   0x00000098   Code   RO         4002    i.FisImu_config_acc  fis210x.o
    0x08001114   0x08001114   0x00000026   Code   RO         4003    i.FisImu_config_ae  fis210x.o
    0x0800113a   0x0800113a   0x00000002   PAD
    0x0800113c   0x0800113c   0x000000bc   Code   RO         4004    i.FisImu_config_gyro  fis210x.o
    0x080011f8   0x080011f8   0x00000002   Code   RO         4005    i.FisImu_config_mag  fis210x.o
    0x080011fa   0x080011fa   0x00000018   Code   RO         4006    i.FisImu_disableWakeOnMotion  fis210x.o
    0x08001212   0x08001212   0x00000074   Code   RO         4007    i.FisImu_doCtrl9Command  fis210x.o
    0x08001286   0x08001286   0x0000001a   Code   RO         4008    i.FisImu_enableSensors  fis210x.o
    0x080012a0   0x080012a0   0x00000178   Code   RO         4010    i.FisImu_init       fis210x.o
    0x08001418   0x08001418   0x00000012   Code   RO         4013    i.FisImu_readStatus0  fis210x.o
    0x0800142a   0x0800142a   0x00000012   Code   RO         4014    i.FisImu_readStatus1  fis210x.o
    0x0800143c   0x0800143c   0x00000020   Code   RO         4019    i.FisImu_read_reg   fis210x.o
    0x0800145c   0x0800145c   0x00000230   Code   RO         4020    i.FisImu_read_xyz   fis210x.o
    0x0800168c   0x0800168c   0x00000080   Code   RO         4021    i.FisImu_read_xyz_raw  fis210x.o
    0x0800170c   0x0800170c   0x0000011c   Code   RO         4022    i.FisImu_set_layout  fis210x.o
    0x08001828   0x08001828   0x00000018   Code   RO         4023    i.FisImu_write_reg  fis210x.o
    0x08001840   0x08001840   0x00000040   Code   RO         1289    i.GPIO_EXTILineConfig  stm32f10x_gpio.o
    0x08001880   0x08001880   0x00000116   Code   RO         1292    i.GPIO_Init         stm32f10x_gpio.o
    0x08001996   0x08001996   0x00000004   Code   RO         1299    i.GPIO_ResetBits    stm32f10x_gpio.o
    0x0800199a   0x0800199a   0x00000004   Code   RO         1300    i.GPIO_SetBits      stm32f10x_gpio.o
    0x0800199e   0x0800199e   0x00000002   PAD
    0x080019a0   0x080019a0   0x0000000c   Code   RO         3399    i.HAL_GetTick       bsp_systick.o
    0x080019ac   0x080019ac   0x0000002c   Code   RO         3400    i.HAL_IncTick       bsp_systick.o
    0x080019d8   0x080019d8   0x00000004   Code   RO         3335    i.HardFault_Handler  stm32f10x_it.o
    0x080019dc   0x080019dc   0x0000009c   Code   RO         4831    i.InvSqrt           ical.o
    0x08001a78   0x08001a78   0x00000004   Code   RO         3336    i.MemManage_Handler  stm32f10x_it.o
    0x08001a7c   0x08001a7c   0x00000002   Code   RO         3337    i.NMI_Handler       stm32f10x_it.o
    0x08001a7e   0x08001a7e   0x00000002   PAD
    0x08001a80   0x08001a80   0x00000070   Code   RO          137    i.NVIC_Init         misc.o
    0x08001af0   0x08001af0   0x00000014   Code   RO          138    i.NVIC_PriorityGroupConfig  misc.o
    0x08001b04   0x08001b04   0x00000040   Code   RO         1650    i.PWR_EnterSTOPMode  stm32f10x_pwr.o
    0x08001b44   0x08001b44   0x00000002   Code   RO         3338    i.PendSV_Handler    stm32f10x_it.o
    0x08001b46   0x08001b46   0x00000002   PAD
    0x08001b48   0x08001b48   0x00000020   Code   RO         1708    i.RCC_APB1PeriphClockCmd  stm32f10x_rcc.o
    0x08001b68   0x08001b68   0x00000020   Code   RO         1710    i.RCC_APB2PeriphClockCmd  stm32f10x_rcc.o
    0x08001b88   0x08001b88   0x0000004c   Code   RO         1717    i.RCC_DeInit        stm32f10x_rcc.o
    0x08001bd4   0x08001bd4   0x000000d4   Code   RO         1718    i.RCC_GetClocksFreq  stm32f10x_rcc.o
    0x08001ca8   0x08001ca8   0x0000003c   Code   RO         1719    i.RCC_GetFlagStatus  stm32f10x_rcc.o
    0x08001ce4   0x08001ce4   0x00000010   Code   RO         1721    i.RCC_GetSYSCLKSource  stm32f10x_rcc.o
    0x08001cf4   0x08001cf4   0x00000018   Code   RO         1722    i.RCC_HCLKConfig    stm32f10x_rcc.o
    0x08001d0c   0x08001d0c   0x0000004c   Code   RO         1723    i.RCC_HSEConfig     stm32f10x_rcc.o
    0x08001d58   0x08001d58   0x00000018   Code   RO         1729    i.RCC_PCLK1Config   stm32f10x_rcc.o
    0x08001d70   0x08001d70   0x00000018   Code   RO         1730    i.RCC_PCLK2Config   stm32f10x_rcc.o
    0x08001d88   0x08001d88   0x0000000c   Code   RO         1731    i.RCC_PLLCmd        stm32f10x_rcc.o
    0x08001d94   0x08001d94   0x0000001c   Code   RO         1732    i.RCC_PLLConfig     stm32f10x_rcc.o
    0x08001db0   0x08001db0   0x00000018   Code   RO         1735    i.RCC_SYSCLKConfig  stm32f10x_rcc.o
    0x08001dc8   0x08001dc8   0x00000038   Code   RO         1737    i.RCC_WaitForHSEStartUp  stm32f10x_rcc.o
    0x08001e00   0x08001e00   0x00000002   Code   RO         3339    i.SVC_Handler       stm32f10x_it.o
    0x08001e02   0x08001e02   0x00000056   Code   RO         3111    i.SYSCLK_Config_WakeUp  main.o
    0x08001e58   0x08001e58   0x00000008   Code   RO           24    i.SetSysClock       system_stm32f10x.o
    0x08001e60   0x08001e60   0x000000e0   Code   RO           25    i.SetSysClockTo72   system_stm32f10x.o
    0x08001f40   0x08001f40   0x00000018   Code   RO         4832    i.Set_Picth_Roll    ical.o
    0x08001f58   0x08001f58   0x00000026   Code   RO         3401    i.SysTick_Enable    bsp_systick.o
    0x08001f7e   0x08001f7e   0x00000008   Code   RO         3340    i.SysTick_Handler   stm32f10x_it.o
    0x08001f86   0x08001f86   0x00000002   PAD
    0x08001f88   0x08001f88   0x00000078   Code   RO         3402    i.SysTick_Init      bsp_systick.o
    0x08002000   0x08002000   0x00000060   Code   RO           27    i.SystemInit        system_stm32f10x.o
    0x08002060   0x08002060   0x0000001a   Code   RO         3112    i.TIM2_IRQHandler   main.o
    0x0800207a   0x0800207a   0x00000006   Code   RO         2337    i.TIM_ClearITPendingBit  stm32f10x_tim.o
    0x08002080   0x08002080   0x00000022   Code   RO         2363    i.TIM_GetITStatus   stm32f10x_tim.o
    0x080020a2   0x080020a2   0x00000018   Code   RO         2878    i.USART_Cmd         stm32f10x_usart.o
    0x080020ba   0x080020ba   0x00000002   PAD
    0x080020bc   0x080020bc   0x0000007c   Code   RO         3436    i.USART_Config      bsp_usart.o
    0x08002138   0x08002138   0x0000001a   Code   RO         2881    i.USART_GetFlagStatus  stm32f10x_usart.o
    0x08002152   0x08002152   0x00000002   PAD
    0x08002154   0x08002154   0x000000d8   Code   RO         2885    i.USART_Init        stm32f10x_usart.o
    0x0800222c   0x0800222c   0x00000008   Code   RO         2895    i.USART_SendData    stm32f10x_usart.o
    0x08002234   0x08002234   0x00000004   Code   RO         3341    i.UsageFault_Handler  stm32f10x_it.o
    0x08002238   0x08002238   0x000000a8   Code   RO         4545    i._Z20qst_algo_gravity_accPf  imualgo.o
    0x080022e0   0x080022e0   0x00000014   Code   RO         4546    i._Z7qmemsetPvci    imualgo.o
    0x080022f4   0x080022f4   0x00000014   Code   RO         4463    i._Z8FastSqrtf      fastmath.o
    0x08002308   0x08002308   0x0000004c   Code   RO         4465    i._Z9FastSqrtIf     fastmath.o
    0x08002354   0x08002354   0x0000001c   Code   RO         5473    i.__0fprintf        mc_w.l(printfa.o)
    0x08002370   0x08002370   0x00000020   Code   RO         5474    i.__0printf         mc_w.l(printfa.o)
    0x08002390   0x08002390   0x00000028   Code   RO         5572    i.__ARM_fpclassify  m_ws.l(fpclassify.o)
    0x080023b8   0x080023b8   0x00000026   Code   RO         5574    i.__ARM_fpclassifyf  m_ws.l(fpclassifyf.o)
    0x080023de   0x080023de   0x000000aa   Code   RO         5590    i.__kernel_poly     m_ws.l(poly.o)
    0x08002488   0x08002488   0x00000010   Code   RO         5558    i.__mathlib_dbl_divzero  m_ws.l(dunder.o)
    0x08002498   0x08002498   0x00000006   Code   RO         5559    i.__mathlib_dbl_infnan  m_ws.l(dunder.o)
    0x0800249e   0x0800249e   0x00000004   Code   RO         5560    i.__mathlib_dbl_infnan2  m_ws.l(dunder.o)
    0x080024a2   0x080024a2   0x0000000c   Code   RO         5561    i.__mathlib_dbl_invalid  m_ws.l(dunder.o)
    0x080024ae   0x080024ae   0x0000000e   Code   RO         5562    i.__mathlib_dbl_overflow  m_ws.l(dunder.o)
    0x080024bc   0x080024bc   0x00000010   Code   RO         5564    i.__mathlib_dbl_underflow  m_ws.l(dunder.o)
    0x080024cc   0x080024cc   0x00000006   Code   RO         5577    i.__mathlib_flt_infnan  m_ws.l(funder.o)
    0x080024d2   0x080024d2   0x00000008   Code   RO         5579    i.__mathlib_flt_invalid  m_ws.l(funder.o)
    0x080024da   0x080024da   0x0000000a   Code   RO         5582    i.__mathlib_flt_underflow  m_ws.l(funder.o)
    0x080024e4   0x080024e4   0x00000168   Code   RO         5593    i.__mathlib_rredf2  m_ws.l(rredf.o)
    0x0800264c   0x0800264c   0x0000000e   Code   RO         5676    i.__scatterload_copy  mc_w.l(handlers.o)
    0x0800265a   0x0800265a   0x00000002   Code   RO         5677    i.__scatterload_null  mc_w.l(handlers.o)
    0x0800265c   0x0800265c   0x0000000e   Code   RO         5678    i.__scatterload_zeroinit  mc_w.l(handlers.o)
    0x0800266a   0x0800266a   0x00000002   PAD
    0x0800266c   0x0800266c   0x0000000c   Code   RO         5632    i.__set_errno       mc_w.l(errno.o)
    0x08002678   0x08002678   0x00000184   Code   RO         5481    i._fp_digits        mc_w.l(printfa.o)
    0x080027fc   0x080027fc   0x000006dc   Code   RO         5482    i._printf_core      mc_w.l(printfa.o)
    0x08002ed8   0x08002ed8   0x00000024   Code   RO         5483    i._printf_post_padding  mc_w.l(printfa.o)
    0x08002efc   0x08002efc   0x0000002e   Code   RO         5484    i._printf_pre_padding  mc_w.l(printfa.o)
    0x08002f2a   0x08002f2a   0x00000002   PAD
    0x08002f2c   0x08002f2c   0x00000014   Code   RO         3113    i.acc_int1_callback  main.o
    0x08002f40   0x08002f40   0x00000014   Code   RO         3114    i.acc_int2_callback  main.o
    0x08002f54   0x08002f54   0x00000034   Code   RO         3115    i.acc_process_irq   main.o
    0x08002f88   0x08002f88   0x000000f0   Code   RO         3116    i.acc_setup_irq     main.o
    0x08003078   0x08003078   0x00000124   Code   RO         5167    i.asinf             m_ws.l(asinf.o)
    0x0800319c   0x0800319c   0x00000220   Code   RO         5549    i.atan              m_ws.l(atan.o)
    0x080033bc   0x080033bc   0x00000180   Code   RO         5175    i.atan2             m_ws.l(atan2.o)
    0x0800353c   0x0800353c   0x00000098   Code   RO         3117    i.bsp_gpio_config   main.o
    0x080035d4   0x080035d4   0x000000a0   Code   RO         4833    i.checkAccuracy     ical.o
    0x08003674   0x08003674   0x0000000c   Code   RO         4834    i.clear_offset      ical.o
    0x08003680   0x08003680   0x0000017c   Code   RO         5191    i.cosf              m_ws.l(cosf.o)
    0x080037fc   0x080037fc   0x00000084   Code   RO         4179    i.delay_us          qst_sw_i2c.o
    0x08003880   0x08003880   0x00000078   Code   RO         4835    i.em_JTJ            ical.o
    0x080038f8   0x080038f8   0x00000058   Code   RO         4836    i.em_JTJinvJK       ical.o
    0x08003950   0x08003950   0x00000048   Code   RO         4837    i.em_JTK            ical.o
    0x08003998   0x08003998   0x00000098   Code   RO         4838    i.em_average        ical.o
    0x08003a30   0x08003a30   0x00000064   Code   RO         4839    i.em_center         ical.o
    0x08003a94   0x08003a94   0x0000005c   Code   RO         4840    i.em_demean         ical.o
    0x08003af0   0x08003af0   0x00000140   Code   RO         4841    i.em_invert         ical.o
    0x08003c30   0x08003c30   0x00000038   Code   RO         4842    i.em_moveData       ical.o
    0x08003c68   0x08003c68   0x000000e4   Code   RO         4843    i.em_prepare_data   ical.o
    0x08003d4c   0x08003d4c   0x000000d0   Code   RO         4844    i.em_restore_data   ical.o
    0x08003e1c   0x08003e1c   0x000000be   Code   RO         4845    i.em_results        ical.o
    0x08003eda   0x08003eda   0x00000002   PAD
    0x08003edc   0x08003edc   0x00000024   Code   RO         3438    i.fputc             bsp_usart.o
    0x08003f00   0x08003f00   0x0000000c   Code   RO         4847    i.get_mag_accuracy  ical.o
    0x08003f0c   0x08003f0c   0x00000040   Code   RO         4180    i.i2c_Ack           qst_sw_i2c.o
    0x08003f4c   0x08003f4c   0x00000034   Code   RO         4181    i.i2c_NAck          qst_sw_i2c.o
    0x08003f80   0x08003f80   0x00000094   Code   RO         4182    i.i2c_ReadByte      qst_sw_i2c.o
    0x08004014   0x08004014   0x00000064   Code   RO         4183    i.i2c_SendByte      qst_sw_i2c.o
    0x08004078   0x08004078   0x00000050   Code   RO         4184    i.i2c_Start         qst_sw_i2c.o
    0x080040c8   0x080040c8   0x0000003c   Code   RO         4185    i.i2c_Stop          qst_sw_i2c.o
    0x08004104   0x08004104   0x0000007c   Code   RO         4186    i.i2c_WaitAck       qst_sw_i2c.o
    0x08004180   0x08004180   0x00000030   Code   RO         4187    i.i2c_sw_gpio_config  qst_sw_i2c.o
    0x080041b0   0x080041b0   0x00000048   Code   RO         4850    i.ical_Init         ical.o
    0x080041f8   0x080041f8   0x00000048   Code   RO         4851    i.ical_addSample    ical.o
    0x08004240   0x08004240   0x0000011c   Code   RO         4852    i.ical_clearFarPoint  ical.o
    0x0800435c   0x0800435c   0x00000034   Code   RO         4854    i.ical_collectDataPoint  ical.o
    0x08004390   0x08004390   0x00000074   Code   RO         4855    i.ical_computeCalibration  ical.o
    0x08004404   0x08004404   0x000000e8   Code   RO         4856    i.ical_qualify      ical.o
    0x080044ec   0x080044ec   0x000000d8   Code   RO         4857    i.ical_shiftData    ical.o
    0x080045c4   0x080045c4   0x0000005c   Code   RO         3123    i.imu_drdy_callback_test  main.o
    0x08004620   0x08004620   0x0000011c   Code   RO         3124    i.imu_hw_reset      main.o
    0x0800473c   0x0800473c   0x00000064   Code   RO         3125    i.imu_polling_test  main.o
    0x080047a0   0x080047a0   0x00000084   Code   RO         3126    i.imu_process_irq   main.o
    0x08004824   0x08004824   0x000000f8   Code   RO         3127    i.imu_setup_irq     main.o
    0x0800491c   0x0800491c   0x00000094   Code   RO         3128    i.imu_sw_cali       main.o
    0x080049b0   0x080049b0   0x00000018   Code   RO         4858    i.mFabs             ical.o
    0x080049c8   0x080049c8   0x00000016   Code   RO         4859    i.mMemset           ical.o
    0x080049de   0x080049de   0x00000010   Code   RO         4860    i.mSabs             ical.o
    0x080049ee   0x080049ee   0x00000002   PAD
    0x080049f0   0x080049f0   0x0000006c   Code   RO         4861    i.mSqrt             ical.o
    0x08004a5c   0x08004a5c   0x000002c8   Code   RO         3129    i.main              main.o
    0x08004d24   0x08004d24   0x00000006   Code   RO         3130    i.mcu_sleep_check   main.o
    0x08004d2a   0x08004d2a   0x00000002   PAD
    0x08004d2c   0x08004d2c   0x00000058   Code   RO         3131    i.mcu_sleep_exit    main.o
    0x08004d84   0x08004d84   0x000009d8   Code   RO         5199    i.pow               m_ws.l(pow.o)
    0x0800575c   0x0800575c   0x00000440   Code   RO         4863    i.process           ical.o
    0x08005b9c   0x08005b9c   0x000001b0   Code   RO         4864    i.push2mcal         ical.o
    0x08005d4c   0x08005d4c   0x000000c4   Code   RO         3645    i.qma6981_initialize  qmax981.o
    0x08005e10   0x08005e10   0x0000007c   Code   RO         3646    i.qma6981_read_raw_xyz  qmax981.o
    0x08005e8c   0x08005e8c   0x00000184   Code   RO         3647    i.qma7981_initialize  qmax981.o
    0x08006010   0x08006010   0x00000084   Code   RO         3648    i.qma7981_read_raw_xyz  qmax981.o
    0x08006094   0x08006094   0x00000260   Code   RO         3649    i.qma7981_v2_initialize  qmax981.o
    0x080062f4   0x080062f4   0x000000dc   Code   RO         3650    i.qmaX981_check_no_motion  qmax981.o
    0x080063d0   0x080063d0   0x0000003c   Code   RO         3651    i.qmaX981_chip_id   qmax981.o
    0x0800640c   0x0800640c   0x00000018   Code   RO         3652    i.qmaX981_delay     qmax981.o
    0x08006424   0x08006424   0x000001ac   Code   RO         3653    i.qmaX981_init      qmax981.o
    0x080065d0   0x080065d0   0x00000078   Code   RO         3654    i.qmaX981_irq_hdlr  qmax981.o
    0x08006648   0x08006648   0x000000b8   Code   RO         3655    i.qmaX981_read_acc  qmax981.o
    0x08006700   0x08006700   0x00000038   Code   RO         3656    i.qmaX981_read_raw  qmax981.o
    0x08006738   0x08006738   0x0000001c   Code   RO         3657    i.qmaX981_readreg   qmax981.o
    0x08006754   0x08006754   0x00000018   Code   RO         3658    i.qmaX981_writereg  qmax981.o
    0x0800676c   0x0800676c   0x0000002a   Code   RO         4391    i.qmc6308_enable    qmc6308.o
    0x08006796   0x08006796   0x00000002   PAD
    0x08006798   0x08006798   0x000000c4   Code   RO         4392    i.qmc6308_get_chipid  qmc6308.o
    0x0800685c   0x0800685c   0x00000078   Code   RO         4393    i.qmc6308_init      qmc6308.o
    0x080068d4   0x080068d4   0x00000016   Code   RO         4394    i.qmc6308_read_block  qmc6308.o
    0x080068ea   0x080068ea   0x00000002   PAD
    0x080068ec   0x080068ec   0x000000ec   Code   RO         4395    i.qmc6308_read_mag_xyz  qmc6308.o
    0x080069d8   0x080069d8   0x00000118   Code   RO         4396    i.qmc6308_set_layout  qmc6308.o
    0x08006af0   0x08006af0   0x00000068   Code   RO         4397    i.qmc6308_set_mode  qmc6308.o
    0x08006b58   0x08006b58   0x00000078   Code   RO         4398    i.qmc6308_set_output_data_rate  qmc6308.o
    0x08006bd0   0x08006bd0   0x00000012   Code   RO         4399    i.qmc6308_write_reg  qmc6308.o
    0x08006be2   0x08006be2   0x00000018   Code   RO         3747    i.qmcX983_ReadData  qmcx983.o
    0x08006bfa   0x08006bfa   0x00000014   Code   RO         3748    i.qmcX983_WriteReg  qmcx983.o
    0x08006c0e   0x08006c0e   0x00000018   Code   RO         3749    i.qmcX983_delay     qmcx983.o
    0x08006c26   0x08006c26   0x00000002   PAD
    0x08006c28   0x08006c28   0x000001a4   Code   RO         3750    i.qmcX983_device_check  qmcx983.o
    0x08006dcc   0x08006dcc   0x0000007c   Code   RO         3751    i.qmcX983_enable    qmcx983.o
    0x08006e48   0x08006e48   0x00000080   Code   RO         3753    i.qmcX983_init      qmcx983.o
    0x08006ec8   0x08006ec8   0x00000184   Code   RO         3754    i.qmcX983_read_mag_xyz  qmcx983.o
    0x0800704c   0x0800704c   0x0000000c   Code   RO         3755    i.qmcX983_start_measure  qmcx983.o
    0x08007058   0x08007058   0x000001c4   Code   RO         3757    i.qmcx983_get_OPT   qmcx983.o
    0x0800721c   0x0800721c   0x0000001c   Code   RO         3908    i.qmp6988_ReadData  qmp6988.o
    0x08007238   0x08007238   0x00000014   Code   RO         3909    i.qmp6988_WriteReg  qmp6988.o
    0x0800724c   0x0800724c   0x00000088   Code   RO         3910    i.qmp6988_calc_altitude  qmp6988.o
    0x080072d4   0x080072d4   0x000000d0   Code   RO         3911    i.qmp6988_calc_pressure  qmp6988.o
    0x080073a4   0x080073a4   0x00000072   Code   RO         3912    i.qmp6988_convTx_02e  qmp6988.o
    0x08007416   0x08007416   0x00000018   Code   RO         3913    i.qmp6988_delay     qmp6988.o
    0x0800742e   0x0800742e   0x00000002   PAD
    0x08007430   0x08007430   0x00000090   Code   RO         3914    i.qmp6988_device_check  qmp6988.o
    0x080074c0   0x080074c0   0x00000484   Code   RO         3915    i.qmp6988_get_calibration_data  qmp6988.o
    0x08007944   0x08007944   0x00000242   Code   RO         3916    i.qmp6988_get_pressure_02e  qmp6988.o
    0x08007b86   0x08007b86   0x00000048   Code   RO         3917    i.qmp6988_init      qmp6988.o
    0x08007bce   0x08007bce   0x0000001c   Code   RO         3918    i.qmp6988_set_filter  qmp6988.o
    0x08007bea   0x08007bea   0x0000003c   Code   RO         3919    i.qmp6988_set_oversampling_p  qmp6988.o
    0x08007c26   0x08007c26   0x0000003c   Code   RO         3920    i.qmp6988_set_oversampling_t  qmp6988.o
    0x08007c62   0x08007c62   0x00000002   PAD
    0x08007c64   0x08007c64   0x000000a4   Code   RO         3921    i.qmp6988_set_powermode  qmp6988.o
    0x08007d08   0x08007d08   0x00000002   Code   RO         3922    i.qmp6988_software_reset  qmp6988.o
    0x08007d0a   0x08007d0a   0x00000002   PAD
    0x08007d0c   0x08007d0c   0x000006ec   Code   RO         4549    i.qst_algo_imu_cali  imualgo.o
    0x080083f8   0x080083f8   0x000000d4   Code   RO         4550    i.qst_algo_imu_data_process  imualgo.o
    0x080084cc   0x080084cc   0x00000054   Code   RO         4551    i.qst_algo_imu_get_offset  imualgo.o
    0x08008520   0x08008520   0x00000244   Code   RO         4552    i.qst_algo_imu_init  imualgo.o
    0x08008764   0x08008764   0x00000014   Code   RO         3132    i.qst_delay         main.o
    0x08008778   0x08008778   0x00000180   Code   RO         3133    i.qst_sensor_read   main.o
    0x080088f8   0x080088f8   0x00000072   Code   RO         4190    i.qst_sw_readreg    qst_sw_i2c.o
    0x0800896a   0x0800896a   0x00000044   Code   RO         4191    i.qst_sw_writereg   qst_sw_i2c.o
    0x080089ae   0x080089ae   0x00000002   PAD
    0x080089b0   0x080089b0   0x0000008c   Code   RO         4865    i.removePointAt     ical.o
    0x08008a3c   0x08008a3c   0x00000188   Code   RO         5209    i.sinf              m_ws.l(sinf.o)
    0x08008bc4   0x08008bc4   0x0000004c   Code   RO         5597    i.sqrt              m_ws.l(sqrt.o)
    0x08008c10   0x08008c10   0x0000002c   Code   RO         5217    i.sqrtf             m_ws.l(sqrtf.o)
    0x08008c3c   0x08008c3c   0x00000078   Code   RO         4866    i.storeCalibrationToFile  ical.o
    0x08008cb4   0x08008cb4   0x000000dc   Code   RO         4867    i.update_offset     ical.o
    0x08008d90   0x08008d90   0x0000002c   Code   RO         4868    i.vec_diff          ical.o
    0x08008dbc   0x08008dbc   0x0000005a   Code   RO         4869    i.vec_magnitude     ical.o
    0x08008e16   0x08008e16   0x00000086   Data   RO         3660    .constdata          qmax981.o
    0x08008e9c   0x08008e9c   0x00000025   Data   RO         3759    .constdata          qmcx983.o
    0x08008ec1   0x08008ec1   0x00000015   Data   RO         3923    .constdata          qmp6988.o
    0x08008ed6   0x08008ed6   0x00000013   Data   RO         4400    .constdata          qmc6308.o
    0x08008ee9   0x08008ee9   0x00000003   PAD
    0x08008eec   0x08008eec   0x0000000c   Data   RO         4568    .constdata          imualgo.o
    0x08008ef8   0x08008ef8   0x00000088   Data   RO         5200    .constdata          m_ws.l(pow.o)
    0x08008f80   0x08008f80   0x00000098   Data   RO         5550    .constdata          m_ws.l(atan.o)
    0x08009018   0x08009018   0x00000008   Data   RO         5592    .constdata          m_ws.l(qnan.o)
    0x08009020   0x08009020   0x00000020   Data   RO         5594    .constdata          m_ws.l(rredf.o)
    0x08009040   0x08009040   0x00000014   Data   RO         4871    .conststring        ical.o
    0x08009054   0x08009054   0x00000020   Data   RO         5674    Region$$Table       anon$$obj.o


    Execution Region RW_IRAM1 (Exec base: 0x20000000, Load base: 0x08009074, Size: 0x00001890, Max: 0x00005000, ABSOLUTE, COMPRESSED[0x0000005c])

    Exec Addr    Load Addr    Size         Type   Attr      Idx    E Section Name        Object

    0x20000000   COMPRESSED   0x00000014   Data   RW           28    .data               system_stm32f10x.o
    0x20000014   COMPRESSED   0x00000014   Data   RW         1738    .data               stm32f10x_rcc.o
    0x20000028   COMPRESSED   0x00000020   Data   RW         3135    .data               main.o
    0x20000048   COMPRESSED   0x0000000c   Data   RW         3403    .data               bsp_systick.o
    0x20000054   COMPRESSED   0x00000001   Data   RW         3661    .data               qmax981.o
    0x20000055   COMPRESSED   0x00000001   PAD
    0x20000056   COMPRESSED   0x00000080   Data   RW         3760    .data               qmcx983.o
    0x200000d6   COMPRESSED   0x0000000c   Data   RW         4028    .data               fis210x.o
    0x200000e2   COMPRESSED   0x0000000a   Data   RW         4401    .data               qmc6308.o
    0x200000ec   COMPRESSED   0x00000020   Data   RW         4569    .data               imualgo.o
    0x2000010c   COMPRESSED   0x0000003c   Data   RW         4872    .data               ical.o
    0x20000148   COMPRESSED   0x00000004   Data   RW         5619    .data               mc_w.l(stdout.o)
    0x2000014c   COMPRESSED   0x00000004   Data   RW         5633    .data               mc_w.l(errno.o)
    0x20000150        -       0x0000014c   Zero   RW         3134    .bss                main.o
    0x2000029c        -       0x00000024   Zero   RW         3659    .bss                qmax981.o
    0x200002c0        -       0x00000014   Zero   RW         3758    .bss                qmcx983.o
    0x200002d4        -       0x0000000c   Zero   RW         4027    .bss                fis210x.o
    0x200002e0        -       0x00000854   Zero   RW         4567    .bss                imualgo.o
    0x20000b34        -       0x0000095c   Zero   RW         4870    .bss                ical.o
    0x20001490        -       0x00000400   Zero   RW            1    STACK               startup_stm32f10x_md.o


==============================================================================

Image component sizes


      Code (inc. data)   RO Data    RW Data    ZI Data      Debug   Object Name

       214         24          0         12          0      17603   bsp_systick.o
       160         12          0          0          0       1195   bsp_usart.o
         0          0          0          0          0       4508   core_cm3.o
        96         14          0          0          0       4211   fastmath.o
      2070        216          0         12         12      11535   fis210x.o
      6074        426         20         60       2396      29948   ical.o
      2836        258         12         32       2132       8317   imualgo.o
      2922        552          0         32        332      22980   main.o
       132         22          0          0          0       1567   misc.o
      2592        564        134          1         36      11037   qmax981.o
      1138        206         19         10          0       7664   qmc6308.o
      1592        334         37        128         20       7046   qmcx983.o
      2794        628         21          0          0      10709   qmp6988.o
       990         38          0          0          0       7371   qst_sw_i2c.o
        36          8        236          0       1024        872   startup_stm32f10x_md.o
       200         18          0          0          0       2152   stm32f10x_exti.o
       350          4          0          0          0       3706   stm32f10x_gpio.o
        32          0          0          0          0       3986   stm32f10x_it.o
        64         10          0          0          0        656   stm32f10x_pwr.o
       696         92          0         20          0      10682   stm32f10x_rcc.o
        40          0          0          0          0       1790   stm32f10x_tim.o
       274          6          0          0          0       4072   stm32f10x_usart.o
       328         28          0         20          0     251585   system_stm32f10x.o

    ----------------------------------------------------------------------
     25666       3460        514        328       5952     425192   Object Totals
         0          0         32          0          0          0   (incl. Generated)
        36          0          3          1          0          0   (incl. Padding)

    ----------------------------------------------------------------------

      Code (inc. data)   RO Data    RW Data    ZI Data      Debug   Library Member Name

       292         38          0          0          0        120   asinf.o
       544         70        152          0          0        124   atan.o
       384         38          0          0          0        144   atan2.o
       380         52          0          0          0        124   cosf.o
        68         10          0          0          0        408   dunder.o
        40          0          0          0          0         68   fpclassify.o
        38          0          0          0          0         68   fpclassifyf.o
        24          0          0          0          0        204   funder.o
       170          0          0          0          0         96   poly.o
      2520        190        136          0          0        324   pow.o
         0          0          8          0          0          0   qnan.o
       360         16         32          0          0         88   rredf.o
       392         54          0          0          0        124   sinf.o
        76          0          0          0          0         84   sqrt.o
        44          0          0          0          0         80   sqrtf.o
        86          0          0          0          0          0   __dczerorl2.o
         0          0          0          0          0          0   entry.o
         0          0          0          0          0          0   entry10a.o
         0          0          0          0          0          0   entry11a.o
         8          4          0          0          0          0   entry2.o
         4          0          0          0          0          0   entry5.o
         0          0          0          0          0          0   entry7b.o
         0          0          0          0          0          0   entry8b.o
         8          4          0          0          0          0   entry9a.o
        12          6          0          4          0         68   errno.o
        30          0          0          0          0          0   handlers.o
        36          8          0          0          0         68   init.o
         0          0          0          0          0          0   iusefp.o
        98          0          0          0          0         84   ldiv.o
        30          0          0          0          0         68   llshl.o
        36          0          0          0          0         68   llsshr.o
        32          0          0          0          0         68   llushr.o
        36          0          0          0          0         68   memcpya.o
        36          0          0          0          0        108   memseta.o
      2286         96          0          0          0        536   printfa.o
         0          0          0          4          0          0   stdout.o
        44          0          0          0          0         80   uidiv.o
        98          0          0          0          0         92   uldiv.o
        48          0          0          0          0         68   cdcmple.o
        48          0          0          0          0         68   cdrcmple.o
        20          0          0          0          0         68   cfcmple.o
        20          0          0          0          0         68   cfrcmple.o
        56          0          0          0          0         88   d2f.o
       334          0          0          0          0        148   dadd.o
       222          0          0          0          0        100   ddiv.o
       186          0          0          0          0        176   depilogue.o
        48          0          0          0          0         68   dfixul.o
        34          0          0          0          0         76   dflti.o
       228          0          0          0          0         96   dmul.o
        46          0          0          0          0         80   dscalb.o
       162          0          0          0          0        100   dsqrt.o
        38          0          0          0          0         68   f2d.o
       176          0          0          0          0        140   fadd.o
       124          0          0          0          0         88   fdiv.o
       110          0          0          0          0        168   fepilogue.o
        50          0          0          0          0         68   ffixi.o
        18          0          0          0          0         68   fflti.o
        10          0          0          0          0         68   ffltui.o
       100          0          0          0          0         76   fmul.o
        60          0          0          0          0         76   frnd.o
        24          0          0          0          0         68   fscalb.o
        94          0          0          0          0         96   fsqrt.o

    ----------------------------------------------------------------------
     10472        586        328          8          0       5552   Library Totals
         4          0          0          0          0          0   (incl. Padding)

    ----------------------------------------------------------------------

      Code (inc. data)   RO Data    RW Data    ZI Data      Debug   Library Name

      5332        468        328          0          0       2056   m_ws.l
      2880        118          0          8          0       1308   mc_w.l
      2256          0          0          0          0       2188   mf_w.l

    ----------------------------------------------------------------------
     10472        586        328          8          0       5552   Library Totals

    ----------------------------------------------------------------------

==============================================================================


      Code (inc. data)   RO Data    RW Data    ZI Data      Debug   

     36138       4046        842        336       5952     418392   Grand Totals
     36138       4046        842         92       5952     418392   ELF Image Totals (compressed)
     36138       4046        842         92          0          0   ROM Totals

==============================================================================

    Total RO  Size (Code + RO Data)                36980 (  36.11kB)
    Total RW  Size (RW Data + ZI Data)              6288 (   6.14kB)
    Total ROM Size (Code + RO Data + RW Data)      37072 (  36.20kB)

==============================================================================

